
DACCPP.elf:     file format elf32-avr

Sections:
Idx Name          Size      VMA       LMA       File off  Algn
  0 .data         00000036  00800100  00003120  000031b4  2**0
                  CONTENTS, ALLOC, LOAD, DATA
  1 .text         00003120  00000000  00000000  00000094  2**1
                  CONTENTS, ALLOC, LOAD, READONLY, CODE
  2 .bss          0000045c  00800136  00800136  000031ea  2**0
                  ALLOC
  3 .comment      00000030  00000000  00000000  000031ea  2**0
                  CONTENTS, READONLY
  4 .note.gnu.avr.deviceinfo 00000040  00000000  00000000  0000321c  2**2
                  CONTENTS, READONLY
  5 .debug_aranges 00000248  00000000  00000000  0000325c  2**0
                  CONTENTS, READONLY, DEBUGGING
  6 .debug_info   000038ae  00000000  00000000  000034a4  2**0
                  CONTENTS, READONLY, DEBUGGING
  7 .debug_abbrev 0000100d  00000000  00000000  00006d52  2**0
                  CONTENTS, READONLY, DEBUGGING
  8 .debug_line   000014a9  00000000  00000000  00007d5f  2**0
                  CONTENTS, READONLY, DEBUGGING
  9 .debug_frame  0000072c  00000000  00000000  00009208  2**2
                  CONTENTS, READONLY, DEBUGGING
 10 .debug_str    00001007  00000000  00000000  00009934  2**0
                  CONTENTS, READONLY, DEBUGGING
 11 .debug_loc    00001f81  00000000  00000000  0000a93b  2**0
                  CONTENTS, READONLY, DEBUGGING
 12 .debug_ranges 00000238  00000000  00000000  0000c8bc  2**0
                  CONTENTS, READONLY, DEBUGGING

Disassembly of section .text:

00000000 <__vectors>:
       0:	0c 94 7d 0b 	jmp	0x16fa	; 0x16fa <__ctors_end>
       4:	0c 94 a5 0b 	jmp	0x174a	; 0x174a <__bad_interrupt>
       8:	0c 94 a5 0b 	jmp	0x174a	; 0x174a <__bad_interrupt>
       c:	0c 94 a5 0b 	jmp	0x174a	; 0x174a <__bad_interrupt>
      10:	0c 94 a5 0b 	jmp	0x174a	; 0x174a <__bad_interrupt>
      14:	0c 94 a5 0b 	jmp	0x174a	; 0x174a <__bad_interrupt>
      18:	0c 94 a5 0b 	jmp	0x174a	; 0x174a <__bad_interrupt>
      1c:	0c 94 a5 0b 	jmp	0x174a	; 0x174a <__bad_interrupt>
      20:	0c 94 a5 0b 	jmp	0x174a	; 0x174a <__bad_interrupt>
      24:	0c 94 a5 0b 	jmp	0x174a	; 0x174a <__bad_interrupt>
      28:	0c 94 a5 0b 	jmp	0x174a	; 0x174a <__bad_interrupt>
      2c:	0c 94 a5 0b 	jmp	0x174a	; 0x174a <__bad_interrupt>
      30:	0c 94 a5 0b 	jmp	0x174a	; 0x174a <__bad_interrupt>
      34:	0c 94 a5 0b 	jmp	0x174a	; 0x174a <__bad_interrupt>
      38:	0c 94 99 10 	jmp	0x2132	; 0x2132 <__vector_14>
      3c:	0c 94 a5 0b 	jmp	0x174a	; 0x174a <__bad_interrupt>
      40:	0c 94 e6 12 	jmp	0x25cc	; 0x25cc <__vector_16>
      44:	0c 94 a5 0b 	jmp	0x174a	; 0x174a <__bad_interrupt>
      48:	0c 94 a5 0b 	jmp	0x174a	; 0x174a <__bad_interrupt>
      4c:	0c 94 a5 0b 	jmp	0x174a	; 0x174a <__bad_interrupt>
      50:	0c 94 a5 0b 	jmp	0x174a	; 0x174a <__bad_interrupt>
      54:	0c 94 a5 0b 	jmp	0x174a	; 0x174a <__bad_interrupt>
      58:	0c 94 a5 0b 	jmp	0x174a	; 0x174a <__bad_interrupt>
      5c:	0c 94 a5 0b 	jmp	0x174a	; 0x174a <__bad_interrupt>
      60:	0c 94 a5 0b 	jmp	0x174a	; 0x174a <__bad_interrupt>
      64:	0c 94 a5 0b 	jmp	0x174a	; 0x174a <__bad_interrupt>
      68:	86 0e       	add	r8, r22
      6a:	8c 0e       	add	r8, r28
      6c:	92 0e       	add	r9, r18
      6e:	98 0e       	add	r9, r24
      70:	9e 0e       	add	r9, r30
      72:	a4 0e       	add	r10, r20
      74:	aa 0e       	add	r10, r26
      76:	b0 0e       	add	r11, r16

00000078 <__trampolines_end>:
	...
      84:	00 00       	nop
      86:	91 e1       	ldi	r25, 0x11	; 17
      88:	7f 9f       	mul	r23, r31
      8a:	e7 f3       	brie	.-8      	; 0x84 <__trampolines_end+0xc>
      8c:	f9 20       	and	r15, r9
      8e:	47 f3       	brie	.-48     	; 0x60 <__SREG__+0x21>
      90:	fc 00       	.word	0x00fc	; ????
      92:	00 00       	nop
      94:	00 00       	nop
      96:	91 23       	and	r25, r17
      98:	40 10       	cpse	r4, r0
      9a:	00 80       	ld	r0, Z
      9c:	40 30       	cpi	r20, 0x00	; 0
      9e:	48 02       	muls	r20, r24
      a0:	00 80       	ld	r0, Z
      a2:	00 00       	nop
      a4:	00 00       	nop
      a6:	91 21       	and	r25, r1
      a8:	40 10       	cpse	r4, r0
      aa:	00 80       	ld	r0, Z
      ac:	41 28       	or	r4, r1
      ae:	48 02       	muls	r20, r24
      b0:	00 00       	nop
      b2:	00 00       	nop
      b4:	00 00       	nop
      b6:	91 21       	and	r25, r1
      b8:	7f 9f       	mul	r23, r31
      ba:	e0 80       	ld	r14, Z
      bc:	41 24       	eor	r4, r1
      be:	48 03       	fmul	r20, r16
      c0:	fc 00       	.word	0x00fc	; ????
      c2:	00 00       	nop
      c4:	00 00       	nop
      c6:	91 21       	and	r25, r1
      c8:	00 90 00 80 	lds	r0, 0x8000	; 0x808000 <__bss_end+0x7a6e>
      cc:	41 22       	and	r4, r17
      ce:	49 f0       	breq	.+18     	; 0xe2 <__trampolines_end+0x6a>
      d0:	04 00       	.word	0x0004	; ????
      d2:	00 00       	nop
      d4:	00 00       	nop
      d6:	51 21       	and	r21, r1
      d8:	00 90 00 80 	lds	r0, 0x8000	; 0x808000 <__bss_end+0x7a6e>
      dc:	41 21       	and	r20, r1
      de:	48 10       	cpse	r4, r8
      e0:	04 00       	.word	0x0004	; ????
      e2:	00 00       	nop
      e4:	00 00       	nop
      e6:	35 e1       	ldi	r19, 0x15	; 21
      e8:	00 90 00 80 	lds	r0, 0x8000	; 0x808000 <__bss_end+0x7a6e>
      ec:	41 20       	and	r4, r1
      ee:	c8 10       	cpse	r12, r8
      f0:	04 80       	ldd	r0, Z+4	; 0x04
      f2:	00 00       	nop
      f4:	00 00       	nop
      f6:	00 00       	nop
      f8:	7f 9f       	mul	r23, r31
      fa:	e0 80       	ld	r14, Z
      fc:	41 20       	and	r4, r1
      fe:	47 e3       	ldi	r20, 0x37	; 55
     100:	fc 00       	.word	0x00fc	; ????
	...
     122:	00 00       	nop
     124:	00 03       	mulsu	r16, r16
     126:	e0 00       	.word	0x00e0	; ????
	...
     134:	00 04       	cpc	r0, r0
     136:	10 00       	.word	0x0010	; ????
	...
     144:	00 0b       	sbc	r16, r16
     146:	10 00       	.word	0x0010	; ????
	...
     154:	00 13       	cpse	r16, r16
     156:	10 00       	.word	0x0010	; ????
	...
     164:	00 20       	and	r0, r0
     166:	10 00       	.word	0x0010	; ????
     168:	00 07       	cpc	r16, r16
     16a:	f9 02       	muls	r31, r25
     16c:	7f 9f       	mul	r23, r31
     16e:	e7 f9       	bld	r30, 7
     170:	02 7f       	andi	r16, 0xF2	; 242
     172:	00 00       	nop
     174:	00 1c       	adc	r0, r0
     176:	08 00       	.word	0x0008	; ????
     178:	00 04       	cpc	r0, r0
     17a:	01 02       	muls	r16, r17
     17c:	40 90 24 01 	lds	r4, 0x0124	; 0x800124 <nums+0xc>
     180:	82 08       	sbc	r8, r2
     182:	00 00       	nop
     184:	00 04       	cpc	r0, r0
     186:	c8 00       	.word	0x00c8	; ????
     188:	00 04       	cpc	r0, r0
     18a:	01 02       	muls	r16, r17
     18c:	40 90 24 01 	lds	r4, 0x0124	; 0x800124 <nums+0xc>
     190:	42 08       	sbc	r4, r2
     192:	00 00       	nop
     194:	00 05       	cpc	r16, r0
     196:	28 00       	.word	0x0028	; ????
     198:	00 04       	cpc	r0, r0
     19a:	01 02       	muls	r16, r17
     19c:	7f 9f       	mul	r23, r31
     19e:	e7 f9       	bld	r30, 7
     1a0:	22 08       	sbc	r2, r2
     1a2:	00 00       	nop
     1a4:	00 05       	cpc	r16, r0
     1a6:	2b 00       	.word	0x002b	; ????
     1a8:	00 04       	cpc	r0, r0
     1aa:	01 02       	muls	r16, r17
     1ac:	70 1c       	adc	r7, r0
     1ae:	04 01       	movw	r0, r8
     1b0:	12 08       	sbc	r1, r2
     1b2:	00 00       	nop
     1b4:	00 04       	cpc	r0, r0
     1b6:	a5 00       	.word	0x00a5	; ????
     1b8:	00 04       	cpc	r0, r0
     1ba:	01 02       	muls	r16, r17
     1bc:	4c 13       	cpse	r20, r28
     1be:	04 01       	movw	r0, r8
     1c0:	0a 08       	sbc	r0, r10
     1c2:	00 00       	nop
     1c4:	00 04       	cpc	r0, r0
     1c6:	42 00       	.word	0x0042	; ????
     1c8:	00 04       	cpc	r0, r0
     1ca:	01 02       	muls	r16, r17
     1cc:	43 10       	cpse	r4, r3
     1ce:	c4 01       	movw	r24, r8
     1d0:	06 08       	sbc	r0, r6
     1d2:	00 00       	nop
     1d4:	00 02       	muls	r16, r16
     1d6:	0c 00       	.word	0x000c	; ????
     1d8:	00 07       	cpc	r16, r16
     1da:	f9 fe       	.word	0xfef9	; ????
     1dc:	40 90 27 f9 	lds	r4, 0xF927	; 0x80f927 <__bss_end+0xf395>
     1e0:	02 08       	sbc	r0, r2
     1e2:	00 00       	nop
     1e4:	00 01       	movw	r0, r0
     1e6:	f0 00       	.word	0x00f0	; ????
	...
     1f4:	00 00       	nop
     1f6:	40 00       	.word	0x0040	; ????
	...
     204:	00 00       	nop
     206:	40 00       	.word	0x0040	; ????
	...
     214:	00 01       	movw	r0, r0
     216:	c0 00       	.word	0x00c0	; ????
     218:	00 07       	cpc	r16, r16
     21a:	f9 02       	muls	r31, r25
     21c:	7f 9f       	mul	r23, r31
     21e:	e7 f0       	brie	.+56     	; 0x258 <__trampolines_end+0x1e0>
     220:	3f cf       	rjmp	.-386    	; 0xa0 <__trampolines_end+0x28>
     222:	f3 fc       	sbrc	r15, 3
     224:	00 00       	nop
     226:	00 00       	nop
     228:	00 04       	cpc	r0, r0
     22a:	01 02       	muls	r16, r17
     22c:	40 90 24 09 	lds	r4, 0x0924	; 0x800924 <__bss_end+0x392>
     230:	20 48       	sbci	r18, 0x80	; 128
     232:	12 04       	cpc	r1, r2
     234:	00 00       	nop
     236:	00 00       	nop
     238:	00 04       	cpc	r0, r0
     23a:	01 02       	muls	r16, r17
     23c:	40 90 24 08 	lds	r4, 0x0824	; 0x800824 <__bss_end+0x292>
     240:	20 48       	sbci	r18, 0x80	; 128
     242:	12 04       	cpc	r1, r2
     244:	00 00       	nop
     246:	00 00       	nop
     248:	00 04       	cpc	r0, r0
     24a:	01 02       	muls	r16, r17
     24c:	40 9f       	mul	r20, r16
     24e:	e4 08       	sbc	r14, r4
     250:	20 48       	sbci	r18, 0x80	; 128
     252:	12 04       	cpc	r1, r2
     254:	00 00       	nop
     256:	00 00       	nop
     258:	00 04       	cpc	r0, r0
     25a:	01 fe       	sbrs	r0, 1
     25c:	40 9c       	mul	r4, r0
     25e:	04 08       	sbc	r0, r4
     260:	20 48       	sbci	r18, 0x80	; 128
     262:	12 04       	cpc	r1, r2
     264:	00 00       	nop
     266:	00 00       	nop
     268:	00 04       	cpc	r0, r0
     26a:	01 02       	muls	r16, r17
     26c:	40 93 04 09 	sts	0x0904, r20	; 0x800904 <__bss_end+0x372>
     270:	20 48       	sbci	r18, 0x80	; 128
     272:	12 04       	cpc	r1, r2
     274:	00 00       	nop
     276:	00 00       	nop
     278:	00 04       	cpc	r0, r0
     27a:	01 02       	muls	r16, r17
     27c:	40 90 c4 08 	lds	r4, 0x08C4	; 0x8008c4 <__bss_end+0x332>
     280:	20 48       	sbci	r18, 0x80	; 128
     282:	12 04       	cpc	r1, r2
     284:	00 00       	nop
     286:	00 00       	nop
     288:	00 07       	cpc	r16, r16
     28a:	f9 02       	muls	r31, r25
     28c:	7f 90       	pop	r7
     28e:	27 f0       	brie	.+8      	; 0x298 <__trampolines_end+0x220>
     290:	3f cf       	rjmp	.-386    	; 0x110 <__trampolines_end+0x98>
     292:	f3 fc       	sbrc	r15, 3
	...
     3f8:	07 32       	cpi	r16, 0x27	; 39
     3fa:	4e f4       	brtc	.+18     	; 0x40e <__LOCK_REGION_LENGTH__+0xe>
	...
     404:	06 7b       	andi	r16, 0xB6	; 182
     406:	d0 90 08 4a 	lds	r13, 0x4A08	; 0x804a08 <__bss_end+0x4476>
     40a:	50 84       	ldd	r5, Z+8	; 0x08
	...
     414:	09 4a       	sbci	r16, 0xA9	; 169
     416:	50 90 08 4b 	lds	r5, 0x4B08	; 0x804b08 <__bss_end+0x4576>
     41a:	50 84       	ldd	r5, Z+8	; 0x08
	...
     424:	09 4a       	sbci	r16, 0xA9	; 169
     426:	50 90 08 7a 	lds	r5, 0x7A08	; 0x807a08 <__bss_end+0x7476>
     42a:	d0 f4       	brcc	.+52     	; 0x460 <__LOCK_REGION_LENGTH__+0x60>
	...
     434:	0f 7b       	andi	r16, 0xBF	; 191
     436:	d0 70       	andi	r29, 0x00	; 0
     438:	08 4a       	sbci	r16, 0xA8	; 168
     43a:	50 84       	ldd	r5, Z+8	; 0x08
	...
     444:	09 42       	sbci	r16, 0x29	; 41
     446:	10 10       	cpse	r1, r0
     448:	08 4a       	sbci	r16, 0xA8	; 168
     44a:	50 84       	ldd	r5, Z+8	; 0x08
	...
     454:	09 42       	sbci	r16, 0x29	; 41
     456:	10 10       	cpse	r1, r0
     458:	08 4a       	sbci	r16, 0xA8	; 168
     45a:	50 84       	ldd	r5, Z+8	; 0x08
	...
     464:	09 42       	sbci	r16, 0x29	; 41
     466:	10 10       	cpse	r1, r0
     468:	07 4a       	sbci	r16, 0xA7	; 167
     46a:	4e f7       	brtc	.-46     	; 0x43e <__LOCK_REGION_LENGTH__+0x3e>
     46c:	80 00       	.word	0x0080	; ????
     46e:	00 00       	nop
     470:	00 00       	nop
     472:	00 00       	nop
     474:	09 42       	sbci	r16, 0x29	; 41
     476:	1e 60       	ori	r17, 0x0E	; 14

00000478 <_ZL13settings_gate>:
	...
     484:	00 00 91 e1 7f 9f e7 f3 f9 20 47 f3 fc 00 00 00     ......... G.....
     494:	00 00 91 23 40 10 00 80 40 30 48 02 00 80 00 00     ...#@...@0H.....
     4a4:	00 00 91 21 40 10 00 80 41 28 48 02 00 00 00 00     ...!@...A(H.....
     4b4:	00 00 91 21 7f 9f e0 80 41 24 48 03 fc 00 00 00     ...!....A$H.....
     4c4:	00 00 91 21 00 90 00 80 41 22 49 f0 04 00 00 00     ...!....A"I.....
     4d4:	00 00 51 21 00 90 00 80 41 21 48 10 04 00 00 00     ..Q!....A!H.....
     4e4:	00 00 35 e1 00 90 00 80 41 20 c8 10 04 80 00 00     ..5.....A ......
     4f4:	00 00 00 00 7f 9f e0 80 41 20 47 e3 fc 00 00 00     ........A G.....
	...
     524:	00 03 e0 00 00 00 00 00 00 00 00 00 00 00 00 00     ................
     534:	00 04 10 00 00 00 00 00 00 00 00 00 00 00 00 00     ................
     544:	00 0b 10 00 00 00 00 00 00 00 00 00 00 00 00 00     ................
     554:	00 13 10 00 00 00 00 00 00 00 00 00 00 00 00 00     ................
     564:	00 20 10 00 00 07 f9 02 7f 9f e7 f9 02 7f 00 00     . ..............
     574:	00 1c 08 00 00 04 01 02 40 90 24 01 82 08 00 00     ........@.$.....
     584:	00 04 c8 00 00 04 01 02 40 90 24 01 42 08 00 00     ........@.$.B...
     594:	00 05 28 00 00 04 01 02 7f 9f e7 f9 22 08 00 00     ..(........."...
     5a4:	00 05 2b 00 00 04 01 02 70 1c 04 01 12 08 00 00     ..+.....p.......
     5b4:	00 04 a5 00 00 04 01 02 4c 13 04 01 0a 08 00 00     ........L.......
     5c4:	00 04 42 00 00 04 01 02 43 10 c4 01 06 08 00 00     ..B.....C.......
     5d4:	00 02 0c 00 00 07 f9 fe 40 90 27 f9 02 08 00 00     ........@.'.....
     5e4:	00 01 f0 00 00 00 00 00 00 00 00 00 00 00 00 00     ................
     5f4:	00 00 40 00 00 00 00 00 00 00 00 00 00 00 00 00     ..@.............
     604:	00 00 40 00 00 00 00 00 00 00 00 00 00 00 00 00     ..@.............
     614:	00 01 c0 00 00 07 f9 02 7f 9f e7 f0 3f cf f3 fc     ............?...
     624:	00 00 00 00 00 04 01 02 40 90 24 09 20 48 12 04     ........@.$. H..
     634:	00 00 00 00 00 04 01 02 40 90 24 08 20 48 12 04     ........@.$. H..
     644:	00 00 00 00 00 04 01 02 40 9f e4 08 20 48 12 04     ........@... H..
     654:	00 00 00 00 00 04 01 fe 40 9c 04 08 20 48 12 04     ........@... H..
     664:	00 00 00 00 00 04 01 02 40 93 04 09 20 48 12 04     ........@... H..
     674:	00 00 00 00 00 04 01 02 40 90 c4 08 20 48 12 04     ........@... H..
     684:	00 00 00 00 00 07 f9 02 7f 90 27 f0 3f cf f3 fc     ..........'.?...
	...
     708:	00 03 f8 fc 7f 3f c1 fe 7f 9f e2 18 3f cf f0 00     .....?......?...
     718:	00 04 01 02 08 20 09 02 40 90 22 38 3f cf f0 00     ..... ..@."8?...
     728:	00 04 01 02 08 20 01 02 40 90 24 78 30 cc 30 00     ..... ..@.$x0.0.
     738:	00 04 01 fe 08 3f c1 02 40 90 24 18 30 cc 30 00     .....?..@.$.0.0.
     748:	00 04 f9 02 08 20 01 02 40 90 24 18 30 cc 30 00     ..... ..@.$.0.0.
     758:	00 04 09 02 08 20 09 02 40 90 24 18 30 cc 30 00     ..... ..@.$.0.0.
     768:	00 04 09 02 08 20 01 02 40 90 28 18 3f cf f0 00     ..... ..@.(.?...
     778:	00 03 f1 02 08 3f c1 fe 7f 9f e8 18 3f cf f0 00     .....?......?...
	...
     7f8:	07 32 4e f4 00 00 00 00 00 00 00 00 06 7b d0 90     .2N..........{..
     808:	08 4a 50 84 00 00 00 00 00 00 00 00 09 4a 50 90     .JP..........JP.
     818:	08 4b 50 84 00 00 00 00 00 00 00 00 09 4a 50 90     .KP..........JP.
     828:	08 7a d0 f4 00 00 00 00 00 00 00 00 0f 7b d0 70     .z...........{.p
     838:	08 4a 50 84 00 00 00 00 00 00 00 00 09 42 10 10     .JP..........B..
     848:	08 4a 50 84 00 00 00 00 00 00 00 00 09 42 10 10     .JP..........B..
     858:	08 4a 50 84 00 00 00 00 00 00 00 00 09 42 10 10     .JP..........B..
     868:	07 4a 4e f7 80 00 00 00 00 00 00 00 09 42 1e 60     .JN..........B.`

00000878 <_ZL12settings_seq>:
	...
     884:	00 00 91 e1 7f 9f e7 f3 f9 20 47 f3 fc 00 00 00     ......... G.....
     894:	00 00 91 23 40 10 00 80 40 30 48 02 00 80 00 00     ...#@...@0H.....
     8a4:	00 00 91 21 40 10 00 80 41 28 48 02 00 00 00 00     ...!@...A(H.....
     8b4:	00 00 91 21 7f 9f e0 80 41 24 48 03 fc 00 00 00     ...!....A$H.....
     8c4:	00 00 91 21 00 90 00 80 41 22 49 f0 04 00 00 00     ...!....A"I.....
     8d4:	00 00 51 21 00 90 00 80 41 21 48 10 04 00 00 00     ..Q!....A!H.....
     8e4:	00 00 35 e1 00 90 00 80 41 20 c8 10 04 80 00 00     ..5.....A ......
     8f4:	00 00 00 00 7f 9f e0 80 41 20 47 e3 fc 00 00 00     ........A G.....
	...
     924:	00 03 e0 00 00 00 00 00 00 00 00 00 00 00 00 00     ................
     934:	00 04 10 00 00 00 00 00 00 00 00 00 00 00 00 00     ................
     944:	00 0b 10 00 00 00 00 00 00 00 00 00 00 00 00 00     ................
     954:	00 13 10 00 00 00 00 00 00 00 00 00 00 00 00 00     ................
     964:	00 20 10 00 00 07 f9 00 3f 10 20 00 00 00 00 00     . ......?. .....
     974:	00 1c 08 00 00 04 09 00 40 90 20 00 00 00 00 00     ........@. .....
     984:	00 04 c8 00 00 04 09 00 40 90 20 00 00 00 00 00     ........@. .....
     994:	00 05 28 00 00 07 f9 00 7f 8f e0 00 00 00 00 00     ..(.............
     9a4:	00 05 2b 00 00 04 01 00 40 80 20 00 00 00 00 00     ..+.....@. .....
     9b4:	00 04 a5 00 00 04 01 00 40 80 20 00 00 00 00 00     ........@. .....
     9c4:	00 04 42 00 00 04 01 00 40 80 20 00 00 00 00 00     ..B.....@. .....
     9d4:	00 02 0c 00 00 04 01 fe 40 8f c0 00 00 00 00 00     ........@.......
     9e4:	00 01 f0 00 00 00 00 00 00 00 00 00 00 00 00 00     ................
     9f4:	00 00 40 00 00 00 00 00 00 00 00 00 00 00 00 00     ..@.............
     a04:	00 00 40 00 00 00 00 00 00 00 00 00 00 00 00 00     ..@.............
     a14:	00 01 c0 00 00 07 f9 fe 7f 90 27 f9 02 7f 9f e0     ..........'.....
     a24:	00 00 00 00 00 04 01 02 40 90 24 01 82 40 10 00     ........@.$..@..
     a34:	00 00 00 00 00 04 01 02 40 90 24 01 42 40 10 00     ........@.$.B@..
     a44:	00 00 00 00 00 07 f9 fe 7f 90 27 f9 22 40 1f e0     ..........'."@..
     a54:	00 00 00 00 00 00 09 00 00 90 24 01 12 40 10 00     ..........$..@..
     a64:	00 00 00 00 00 00 09 00 00 90 24 01 0a 40 10 00     ..........$..@..
     a74:	00 00 00 00 00 00 09 00 00 90 24 01 06 40 10 00     ..........$..@..
     a84:	00 00 00 00 00 07 f9 fe 00 9f e7 f9 02 7f 9f e0     ................
	...
     b08:	00 07 f1 fe 40 9f e0 ff 3f cf f1 7f 9f e7 f8 00     ....@...?.......
     b18:	00 04 09 02 60 90 04 81 20 48 11 40 90 24 08 00     ....`... H.@.$..
     b28:	00 04 09 02 50 90 00 81 20 48 12 40 90 24 08 00     ....P... H.@.$..
     b38:	00 04 09 02 48 9f e0 81 20 48 12 40 90 24 08 00     ....H... H.@.$..
     b48:	00 04 09 02 44 90 00 81 20 48 12 40 90 24 08 00     ....D... H.@.$..
     b58:	00 04 09 02 42 90 04 81 20 48 12 40 90 24 08 00     ....B... H.@.$..
     b68:	00 04 09 02 41 90 00 81 20 48 14 40 90 24 08 00     ....A... H.@.$..
     b78:	00 07 f1 fe 40 9f e0 ff 3f cf f4 7f 9f e7 f8 00     ....@...?.......
	...
     bf8:	07 32 4e f4 00 00 00 00 00 00 00 00 00 00 00 00     .2N.............
     c08:	08 4a 50 84 00 00 00 00 00 00 00 00 00 00 00 00     .JP.............
     c18:	08 4b 50 84 00 00 00 00 00 00 00 00 00 00 00 00     .KP.............
     c28:	08 7a d0 f4 00 00 00 00 00 00 00 00 00 00 00 00     .z..............
     c38:	08 4a 50 84 00 00 00 00 00 00 00 00 00 00 00 00     .JP.............
     c48:	08 4a 50 84 00 00 00 00 00 00 00 00 00 00 00 00     .JP.............
     c58:	08 4a 50 84 00 00 00 00 00 00 00 00 00 00 00 00     .JP.............
     c68:	07 4a 4e f7 80 00 00 00 00 00 00 00 00 00 00 00     .JN.............

00000c78 <_ZL13settings_time>:
	...
     c84:	00 00 91 e1 7f 9f e7 f3 f9 20 47 f3 fc 00 00 00     ......... G.....
     c94:	00 00 91 23 40 10 00 80 40 30 48 02 00 80 00 00     ...#@...@0H.....
     ca4:	00 00 91 21 40 10 00 80 41 28 48 02 00 00 00 00     ...!@...A(H.....
     cb4:	00 00 91 21 7f 9f e0 80 41 24 48 03 fc 00 00 00     ...!....A$H.....
     cc4:	00 00 91 21 00 90 00 80 41 22 49 f0 04 00 00 00     ...!....A"I.....
     cd4:	00 00 51 21 00 90 00 80 41 21 48 10 04 00 00 00     ..Q!....A!H.....
     ce4:	00 00 35 e1 00 90 00 80 41 20 c8 10 04 80 00 00     ..5.....A ......
     cf4:	00 00 00 00 7f 9f e0 80 41 20 47 e3 fc 00 00 00     ........A G.....
	...
     d24:	00 03 e0 00 00 00 00 00 00 00 00 00 00 00 00 00     ................
     d34:	00 04 10 00 00 00 00 00 00 00 00 00 00 00 00 00     ................
     d44:	00 0b 10 00 00 00 00 00 00 00 00 00 00 00 00 00     ................
     d54:	00 13 10 00 00 00 00 00 00 00 00 00 00 00 00 00     ................
     d64:	00 20 10 00 00 00 00 00 00 00 00 00 00 00 00 00     . ..............
     d74:	00 1c 08 00 00 00 00 00 00 00 00 00 00 00 00 00     ................
     d84:	00 04 c8 00 00 00 00 00 00 00 00 00 00 00 00 00     ................
     d94:	00 05 28 00 00 00 00 00 00 00 00 00 00 00 00 00     ..(.............
     da4:	00 05 2b 00 00 00 00 00 00 00 00 00 00 00 00 00     ..+.............
     db4:	00 04 a5 00 00 00 00 00 00 00 00 00 00 00 00 00     ................
     dc4:	00 04 42 00 00 00 00 00 00 00 00 00 00 00 00 00     ..B.............
     dd4:	00 02 0c 00 3f c7 fc 80 83 fc ff 3f c0 00 00 00     ....?......?....
     de4:	00 01 f0 00 20 24 04 c1 82 04 81 20 40 00 00 00     .... $..... @...
     df4:	00 00 40 00 20 24 04 a2 92 04 81 20 40 00 00 00     ..@. $..... @...
     e04:	00 00 40 00 20 24 04 94 82 04 81 20 40 00 00 00     ..@. $..... @...
     e14:	00 01 c0 00 3f c7 fc 88 82 04 81 20 40 00 00 00     ....?...... @...
     e24:	00 00 00 00 20 24 00 80 92 04 81 20 40 00 00 00     .... $..... @...
     e34:	00 00 00 00 20 24 00 80 82 04 81 20 40 00 00 00     .... $..... @...
     e44:	00 00 00 00 3f c4 00 80 83 fc ff 3f c0 00 00 00     ....?......?....
	...
     ec8:	20 07 fc c0 8f f3 fe 40 41 fe 7f 9f e0 00 00 00      ......@A.......
     ed8:	20 04 00 a0 90 00 20 40 41 02 40 90 20 00 00 00      ..... @A.@. ...
     ee8:	20 04 00 90 90 00 20 40 49 02 40 90 20 00 00 00      ..... @I.@. ...
     ef8:	20 04 00 88 90 00 20 40 41 02 40 90 20 00 00 00      ..... @A.@. ...
     f08:	20 07 fc 84 91 f0 20 7f c1 02 40 90 20 00 00 00      ..... ...@. ...
     f18:	20 04 00 82 90 10 20 40 49 02 40 90 20 00 00 00      ..... @I.@. ...
     f28:	20 04 00 81 90 10 20 40 41 02 40 90 20 00 00 00      ..... @A.@. ...
     f38:	3f e7 fc 80 8f e0 20 40 41 fe 7f 9f e0 00 00 00     ?..... @A.......
	...
     ff8:	07 32 4e f4 00 00 00 00 00 00 00 00 06 7b d0 90     .2N..........{..
    1008:	08 4a 50 84 00 00 00 00 00 00 00 00 09 4a 50 90     .JP..........JP.
    1018:	08 4b 50 84 00 00 00 00 00 00 00 00 09 4a 50 90     .KP..........JP.
    1028:	08 7a d0 f4 00 00 00 00 00 00 00 00 0f 7b d0 70     .z...........{.p
    1038:	08 4a 50 84 00 00 00 00 00 00 00 00 09 42 10 10     .JP..........B..
    1048:	08 4a 50 84 00 00 00 00 00 00 00 00 09 42 10 10     .JP..........B..
    1058:	08 4a 50 84 00 00 00 00 00 00 00 00 09 42 10 10     .JP..........B..
    1068:	07 4a 4e f7 80 00 00 00 00 00 00 00 09 42 1e 60     .JN..........B.`

00001078 <_ZL13settings_main>:
	...
    1084:	00 00 91 e1 7f 9f e7 f3 f9 20 47 f3 fc 00 00 00     ......... G.....
    1094:	00 00 91 23 40 10 00 80 40 30 48 02 00 80 00 00     ...#@...@0H.....
    10a4:	00 00 91 21 40 10 00 80 41 28 48 02 00 00 00 00     ...!@...A(H.....
    10b4:	00 00 91 21 7f 9f e0 80 41 24 48 03 fc 00 00 00     ...!....A$H.....
    10c4:	00 00 91 21 00 90 00 80 41 22 49 f0 04 00 00 00     ...!....A"I.....
    10d4:	00 00 51 21 00 90 00 80 41 21 48 10 04 00 00 00     ..Q!....A!H.....
    10e4:	00 00 35 e1 00 90 00 80 41 20 c8 10 04 80 00 00     ..5.....A ......
    10f4:	00 00 00 00 7f 9f e0 80 41 20 47 e3 fc 00 00 00     ........A G.....
	...
    1124:	00 03 e0 00 00 00 00 00 00 00 00 00 00 00 00 00     ................
    1134:	00 04 10 00 1f e7 f2 40 9f e0 00 00 00 00 00 00     .......@........
    1144:	00 0b 10 00 10 20 82 61 90 00 00 00 00 00 00 00     ..... .a........
    1154:	00 13 10 00 10 20 80 52 90 00 00 00 00 00 00 00     ..... .R........
    1164:	00 20 10 00 10 20 82 4c 9f e0 00 00 00 00 00 00     . ... .L........
    1174:	00 1c 08 00 10 20 82 40 90 00 00 00 00 00 00 00     ..... .@........
    1184:	00 04 c8 00 10 20 82 40 90 00 00 00 00 00 00 00     ..... .@........
    1194:	00 05 28 00 10 20 82 40 90 00 00 00 00 00 00 00     ..(.. .@........
    11a4:	00 05 2b 00 1f e0 82 40 9f e0 00 00 00 00 00 00     ..+....@........
    11b4:	00 04 a5 00 00 00 00 00 00 00 00 00 00 00 00 00     ................
    11c4:	00 04 42 00 00 00 00 00 00 00 00 00 00 00 00 00     ..B.............
    11d4:	00 02 0c 00 00 00 00 00 00 00 00 00 00 00 00 00     ................
    11e4:	00 01 f0 00 1f e3 f9 fe 7f 3f c0 00 00 00 00 00     .........?......
    11f4:	00 00 40 00 10 24 01 02 08 20 00 00 00 00 00 00     ..@..$... ......
    1204:	00 00 40 00 10 24 01 02 08 20 00 00 00 00 00 00     ..@..$... ......
    1214:	00 01 c0 00 10 24 01 fe 08 3f c0 00 00 00 00 00     .....$...?......
    1224:	00 00 00 00 10 24 79 02 08 20 00 00 00 00 00 00     .....$y.. ......
    1234:	00 00 00 00 10 24 09 02 08 20 00 00 00 00 00 00     .....$... ......
    1244:	00 00 00 00 10 24 09 02 08 20 00 00 00 00 00 00     .....$... ......
    1254:	00 00 00 00 1f e3 f1 02 08 3f c0 00 00 00 00 00     .........?......
	...
    1298:	1f e7 f9 fe 7f 8f e7 f9 fe 7f 93 fc 81 00 00 00     ................
    12a8:	10 24 09 02 40 90 04 09 00 40 12 04 c1 00 00 00     .$..@....@......
    12b8:	10 24 09 02 40 90 04 09 00 40 02 04 a1 00 00 00     .$..@....@......
    12c8:	10 27 f9 fe 40 90 07 f9 fe 7f 92 04 91 00 00 00     .'..@...........
    12d8:	10 24 01 c0 40 91 e7 01 00 00 92 04 89 00 00 00     .$..@...........
    12e8:	10 24 01 30 40 90 24 c1 00 00 92 04 85 00 00 00     .$.0@.$.........
    12f8:	10 24 01 0c 40 90 24 31 00 00 92 04 83 00 00 00     .$..@.$1........
    1308:	1f e4 01 02 7f 8f c4 09 fe 7f 93 fc 81 00 00 00     ................
	...
    1348:	1f e7 f9 02 7f 9f e7 f1 fe 00 00 00 00 00 00 00     ................
    1358:	10 24 01 02 40 90 24 09 00 00 00 00 00 00 00 00     .$..@.$.........
    1368:	10 24 01 02 40 90 24 09 00 00 00 00 00 00 00 00     .$..@.$.........
    1378:	10 24 01 02 40 9f e4 09 fe 00 00 00 00 00 00 00     .$..@...........
    1388:	10 24 01 fe 40 9c 04 08 02 00 00 00 00 00 00 00     .$..@...........
    1398:	10 24 01 02 40 93 04 08 02 00 00 00 00 00 00 00     .$..@...........
    13a8:	10 24 01 02 40 90 c4 08 02 00 00 00 00 00 00 00     .$..@...........
    13b8:	1f e7 f9 02 7f 90 27 f1 fe 00 00 00 00 00 00 00     ......'.........
	...
    13f8:	07 32 4e f4 00 00 00 00 00 00 00 00 07 a5 de f0     .2N.............
    1408:	08 4a 50 84 00 00 00 00 00 00 00 00 04 24 90 90     .JP..........$..
    1418:	08 4b 50 84 00 00 00 00 00 00 00 00 04 34 90 90     .KP..........4..
    1428:	08 7a d0 f4 00 00 00 00 00 00 00 00 07 ac 9e f0     .z..............
    1438:	08 4a 50 84 00 00 00 00 00 00 00 00 04 24 90 c0     .JP..........$..
    1448:	08 4a 50 84 00 00 00 00 00 00 00 00 04 24 90 a0     .JP..........$..
    1458:	08 4a 50 84 00 00 00 00 00 00 00 00 04 24 90 90     .JP..........$..
    1468:	07 4a 4e f7 80 00 00 00 00 00 00 00 07 a4 9e 90     .JN.............

00001478 <_ZL5start>:
    1478:	3f f3 00 cf fc 3f f0 ff f3 00 cf ff 00 00 91 e1     ?....?..........
    1488:	3f f3 00 cf fc 3f f0 ff f3 00 cf ff 00 00 91 23     ?....?.........#
    1498:	c0 03 00 cc 03 30 0c c0 03 c0 c0 60 00 00 91 21     .....0.....`...!
    14a8:	c0 03 00 cc 03 30 0c c0 03 c0 c0 60 00 00 91 21     .....0.....`...!
    14b8:	c0 03 00 cc 03 30 0c c0 03 30 c0 60 00 00 91 21     .....0...0.`...!
    14c8:	c0 03 00 cc 03 30 0c c0 03 30 c0 60 00 00 51 21     .....0...0.`..Q!
    14d8:	c0 03 00 cf fc 3f f0 c0 03 0c c0 60 00 00 35 e1     .....?.....`..5.
    14e8:	c0 03 00 cf fc 3f f0 ff f3 0c c0 60 00 00 00 00     .....?.....`....
    14f8:	c0 03 00 cf c0 3f 00 ff f3 03 c0 60 00 00 00 00     .....?.....`....
    1508:	c0 03 00 cf c0 3f 00 c0 03 03 c0 60 00 00 00 00     .....?.....`....
    1518:	c0 03 00 cc f0 33 c0 c0 03 00 c0 60 00 03 e0 00     .....3.....`....
    1528:	c0 03 00 cc f0 33 c0 c0 03 00 c0 60 00 04 10 00     .....3.....`....
    1538:	c0 03 00 cc 3c 30 f0 c0 03 00 c0 60 00 0b 10 00     ....<0.....`....
    1548:	c0 03 00 cc 3c 30 f0 c0 03 00 c0 60 00 13 10 00     ....<0.....`....
    1558:	3f f0 ff 0c 0f 30 3c ff f3 00 c0 60 00 20 10 00     ?....0<....`. ..
    1568:	3f f0 ff 0c 0f 30 3c ff f3 00 c0 60 00 1c 08 00     ?....0<....`....
	...
    1584:	00 04 c8 00 00 00 00 00 00 00 00 00 00 00 00 00     ................
    1594:	00 05 28 00 3f f3 00 c3 fc 3f f0 ff c3 00 00 00     ..(.?....?......
    15a4:	00 05 2b 00 3f f3 00 c3 fc 3f f0 ff c3 00 00 00     ..+.?....?......
    15b4:	00 04 a5 00 c0 03 00 cc 03 30 0c c0 30 00 00 00     .........0..0...
    15c4:	00 04 42 00 c0 03 00 cc 03 30 0c c0 30 00 00 00     ..B......0..0...
    15d4:	00 02 0c 00 c0 03 00 cc 03 30 0c c0 30 00 00 00     .........0..0...
    15e4:	00 01 f0 00 c0 03 00 cc 03 30 0c c0 30 00 00 00     .........0..0...
    15f4:	00 00 40 00 c0 03 00 cc 03 3f f0 c0 30 00 00 00     ..@......?..0...
    1604:	00 00 40 00 c0 03 ff cc 03 3f f0 c0 30 00 00 00     ..@......?..0...
    1614:	00 01 c0 00 c0 03 ff cc 03 3f 00 c0 30 00 00 00     .........?..0...
    1624:	00 00 00 00 c0 03 00 cc 03 3f 00 c0 30 00 00 00     .........?..0...
    1634:	00 00 00 00 c0 03 00 cc 03 33 c0 c0 30 00 00 00     .........3..0...
    1644:	00 00 00 00 c0 03 00 cc 03 33 c0 c0 30 00 00 00     .........3..0...
    1654:	75 36 25 77 c0 03 00 cc 03 30 f0 c0 30 00 00 00     u6%w.....0..0...
    1664:	45 51 75 55 c0 03 00 cc 03 30 f0 c0 30 00 00 00     EQuU.....0..0...
    1674:	77 53 56 56 3f f3 00 c3 fc 30 3c ff c3 00 00 00     wSVV?....0<.....
    1684:	51 55 75 55 3f f3 00 c3 fc 30 3c ff c3 00 00 00     QUuU?....0<.....
    1694:	77 57 55 77                                         wWUw

00001698 <_ZL5blank>:
	...

000016a0 <_ZL5arrow>:
    16a0:	c0 f0 fc ff ff fc f0 c0                             ........

000016a8 <_ZL11nine_square>:
    16a8:	ff ff c3 ff ff 03 ff ff                             ........

000016b0 <_ZL12eight_square>:
    16b0:	ff ff c3 ff ff c3 ff ff                             ........

000016b8 <_ZL12seven_square>:
    16b8:	ff ff 03 0f 1c 38 70 60                             .....8p`

000016c0 <_ZL10six_square>:
    16c0:	ff ff c0 ff ff c3 ff ff                             ........

000016c8 <_ZL11five_square>:
    16c8:	ff ff c0 ff ff 03 ff ff                             ........

000016d0 <_ZL12foure_square>:
    16d0:	c3 c3 c3 ff ff 03 03 03                             ........

000016d8 <_ZL12three_square>:
    16d8:	ff ff 03 ff ff 03 ff ff                             ........

000016e0 <_ZL10two_square>:
    16e0:	ff ff 03 ff ff c0 ff ff                             ........

000016e8 <_ZL10one_square>:
    16e8:	18 38 78 18 18 18 18 18                             .8x.....

000016f0 <_ZL11zero_square>:
    16f0:	ff ff c3 c3 c3 c3 ff ff                             ........

000016f8 <__ctors_start>:
    16f8:	3b 15       	cp	r19, r11

000016fa <__ctors_end>:
    16fa:	11 24       	eor	r1, r1
    16fc:	1f be       	out	0x3f, r1	; 63
    16fe:	cf ef       	ldi	r28, 0xFF	; 255
    1700:	d8 e0       	ldi	r29, 0x08	; 8
    1702:	de bf       	out	0x3e, r29	; 62
    1704:	cd bf       	out	0x3d, r28	; 61

00001706 <__do_copy_data>:
    1706:	11 e0       	ldi	r17, 0x01	; 1
    1708:	a0 e0       	ldi	r26, 0x00	; 0
    170a:	b1 e0       	ldi	r27, 0x01	; 1
    170c:	e0 e2       	ldi	r30, 0x20	; 32
    170e:	f1 e3       	ldi	r31, 0x31	; 49
    1710:	02 c0       	rjmp	.+4      	; 0x1716 <__do_copy_data+0x10>
    1712:	05 90       	lpm	r0, Z+
    1714:	0d 92       	st	X+, r0
    1716:	a6 33       	cpi	r26, 0x36	; 54
    1718:	b1 07       	cpc	r27, r17
    171a:	d9 f7       	brne	.-10     	; 0x1712 <__do_copy_data+0xc>

0000171c <__do_clear_bss>:
    171c:	25 e0       	ldi	r18, 0x05	; 5
    171e:	a6 e3       	ldi	r26, 0x36	; 54
    1720:	b1 e0       	ldi	r27, 0x01	; 1
    1722:	01 c0       	rjmp	.+2      	; 0x1726 <.do_clear_bss_start>

00001724 <.do_clear_bss_loop>:
    1724:	1d 92       	st	X+, r1

00001726 <.do_clear_bss_start>:
    1726:	a2 39       	cpi	r26, 0x92	; 146
    1728:	b2 07       	cpc	r27, r18
    172a:	e1 f7       	brne	.-8      	; 0x1724 <.do_clear_bss_loop>

0000172c <__do_global_ctors>:
    172c:	1b e0       	ldi	r17, 0x0B	; 11
    172e:	cd e7       	ldi	r28, 0x7D	; 125
    1730:	db e0       	ldi	r29, 0x0B	; 11
    1732:	04 c0       	rjmp	.+8      	; 0x173c <__do_global_ctors+0x10>
    1734:	21 97       	sbiw	r28, 0x01	; 1
    1736:	fe 01       	movw	r30, r28
    1738:	0e 94 52 18 	call	0x30a4	; 0x30a4 <__tablejump2__>
    173c:	cc 37       	cpi	r28, 0x7C	; 124
    173e:	d1 07       	cpc	r29, r17
    1740:	c9 f7       	brne	.-14     	; 0x1734 <__do_global_ctors+0x8>
    1742:	0e 94 f9 13 	call	0x27f2	; 0x27f2 <main>
    1746:	0c 94 8e 18 	jmp	0x311c	; 0x311c <_exit>

0000174a <__bad_interrupt>:
    174a:	0c 94 00 00 	jmp	0	; 0x0 <__vectors>

0000174e <_ZN11Framebuffer9drawPixelEhhh>:
        this->buffer[buffer_location] = 0x00;
    }
}

void Framebuffer::invert(uint8_t status) {
    this->oled.invert(status);
    174e:	66 23       	and	r22, r22
    1750:	b4 f1       	brlt	.+108    	; 0x17be <_ZN11Framebuffer9drawPixelEhhh+0x70>
    1752:	40 34       	cpi	r20, 0x40	; 64
    1754:	a0 f5       	brcc	.+104    	; 0x17be <_ZN11Framebuffer9drawPixelEhhh+0x70>
    1756:	22 23       	and	r18, r18
    1758:	c9 f0       	breq	.+50     	; 0x178c <_ZN11Framebuffer9drawPixelEhhh+0x3e>
    175a:	24 2f       	mov	r18, r20
    175c:	26 95       	lsr	r18
    175e:	26 95       	lsr	r18
    1760:	26 95       	lsr	r18
    1762:	70 e0       	ldi	r23, 0x00	; 0
    1764:	30 e8       	ldi	r19, 0x80	; 128
    1766:	23 9f       	mul	r18, r19
    1768:	60 0d       	add	r22, r0
    176a:	71 1d       	adc	r23, r1
    176c:	11 24       	eor	r1, r1
    176e:	fc 01       	movw	r30, r24
    1770:	e6 0f       	add	r30, r22
    1772:	f7 1f       	adc	r31, r23
    1774:	47 70       	andi	r20, 0x07	; 7
    1776:	81 e0       	ldi	r24, 0x01	; 1
    1778:	90 e0       	ldi	r25, 0x00	; 0
    177a:	02 c0       	rjmp	.+4      	; 0x1780 <_ZN11Framebuffer9drawPixelEhhh+0x32>
    177c:	88 0f       	add	r24, r24
    177e:	99 1f       	adc	r25, r25
    1780:	4a 95       	dec	r20
    1782:	e2 f7       	brpl	.-8      	; 0x177c <_ZN11Framebuffer9drawPixelEhhh+0x2e>
    1784:	90 81       	ld	r25, Z
    1786:	89 2b       	or	r24, r25
    1788:	80 83       	st	Z, r24
    178a:	08 95       	ret
    178c:	24 2f       	mov	r18, r20
    178e:	26 95       	lsr	r18
    1790:	26 95       	lsr	r18
    1792:	26 95       	lsr	r18
    1794:	70 e0       	ldi	r23, 0x00	; 0
    1796:	30 e8       	ldi	r19, 0x80	; 128
    1798:	23 9f       	mul	r18, r19
    179a:	60 0d       	add	r22, r0
    179c:	71 1d       	adc	r23, r1
    179e:	11 24       	eor	r1, r1
    17a0:	fc 01       	movw	r30, r24
    17a2:	e6 0f       	add	r30, r22
    17a4:	f7 1f       	adc	r31, r23
    17a6:	47 70       	andi	r20, 0x07	; 7
    17a8:	81 e0       	ldi	r24, 0x01	; 1
    17aa:	90 e0       	ldi	r25, 0x00	; 0
    17ac:	02 c0       	rjmp	.+4      	; 0x17b2 <_ZN11Framebuffer9drawPixelEhhh+0x64>
    17ae:	88 0f       	add	r24, r24
    17b0:	99 1f       	adc	r25, r25
    17b2:	4a 95       	dec	r20
    17b4:	e2 f7       	brpl	.-8      	; 0x17ae <_ZN11Framebuffer9drawPixelEhhh+0x60>
    17b6:	80 95       	com	r24
    17b8:	90 81       	ld	r25, Z
    17ba:	89 23       	and	r24, r25
    17bc:	80 83       	st	Z, r24
    17be:	08 95       	ret

000017c0 <_ZN11Framebuffer10drawBitmapEPKhhhhh>:
    17c0:	2f 92       	push	r2
    17c2:	3f 92       	push	r3
    17c4:	4f 92       	push	r4
    17c6:	5f 92       	push	r5
    17c8:	6f 92       	push	r6
    17ca:	7f 92       	push	r7
    17cc:	8f 92       	push	r8
    17ce:	9f 92       	push	r9
    17d0:	af 92       	push	r10
    17d2:	bf 92       	push	r11
    17d4:	cf 92       	push	r12
    17d6:	df 92       	push	r13
    17d8:	ef 92       	push	r14
    17da:	ff 92       	push	r15
    17dc:	0f 93       	push	r16
    17de:	1f 93       	push	r17
    17e0:	cf 93       	push	r28
    17e2:	df 93       	push	r29
    17e4:	e2 2f       	mov	r30, r18
    17e6:	f0 e0       	ldi	r31, 0x00	; 0
    17e8:	37 96       	adiw	r30, 0x07	; 7
    17ea:	3f 01       	movw	r6, r30
    17ec:	1a f4       	brpl	.+6      	; 0x17f4 <_ZN11Framebuffer10drawBitmapEPKhhhhh+0x34>
    17ee:	37 e0       	ldi	r19, 0x07	; 7
    17f0:	63 0e       	add	r6, r19
    17f2:	71 1c       	adc	r7, r1
    17f4:	75 94       	asr	r7
    17f6:	67 94       	ror	r6
    17f8:	75 94       	asr	r7
    17fa:	67 94       	ror	r6
    17fc:	75 94       	asr	r7
    17fe:	67 94       	ror	r6
    1800:	44 23       	and	r20, r20
    1802:	09 f4       	brne	.+2      	; 0x1806 <_ZN11Framebuffer10drawBitmapEPKhhhhh+0x46>
    1804:	45 c0       	rjmp	.+138    	; 0x1890 <_ZN11Framebuffer10drawBitmapEPKhhhhh+0xd0>
    1806:	20 2e       	mov	r2, r16
    1808:	42 2e       	mov	r4, r18
    180a:	5b 01       	movw	r10, r22
    180c:	6c 01       	movw	r12, r24
    180e:	34 2e       	mov	r3, r20
    1810:	3e 0c       	add	r3, r14
    1812:	81 2c       	mov	r8, r1
    1814:	91 2c       	mov	r9, r1
    1816:	77 24       	eor	r7, r7
    1818:	00 e8       	ldi	r16, 0x80	; 128
    181a:	10 e0       	ldi	r17, 0x00	; 0
    181c:	44 20       	and	r4, r4
    181e:	91 f1       	breq	.+100    	; 0x1884 <_ZN11Framebuffer10drawBitmapEPKhhhhh+0xc4>
    1820:	68 9c       	mul	r6, r8
    1822:	e0 01       	movw	r28, r0
    1824:	69 9c       	mul	r6, r9
    1826:	d0 0d       	add	r29, r0
    1828:	78 9c       	mul	r7, r8
    182a:	d0 0d       	add	r29, r0
    182c:	11 24       	eor	r1, r1
    182e:	52 2c       	mov	r5, r2
    1830:	f1 2c       	mov	r15, r1
    1832:	8f 2d       	mov	r24, r15
    1834:	86 95       	lsr	r24
    1836:	86 95       	lsr	r24
    1838:	86 95       	lsr	r24
    183a:	fe 01       	movw	r30, r28
    183c:	e8 0f       	add	r30, r24
    183e:	f1 1d       	adc	r31, r1
    1840:	ea 0d       	add	r30, r10
    1842:	fb 1d       	adc	r31, r11
    1844:	84 91       	lpm	r24, Z
    1846:	9f 2d       	mov	r25, r15
    1848:	97 70       	andi	r25, 0x07	; 7
    184a:	98 01       	movw	r18, r16
    184c:	02 c0       	rjmp	.+4      	; 0x1852 <_ZN11Framebuffer10drawBitmapEPKhhhhh+0x92>
    184e:	35 95       	asr	r19
    1850:	27 95       	ror	r18
    1852:	9a 95       	dec	r25
    1854:	e2 f7       	brpl	.-8      	; 0x184e <_ZN11Framebuffer10drawBitmapEPKhhhhh+0x8e>
    1856:	e8 2f       	mov	r30, r24
    1858:	f0 e0       	ldi	r31, 0x00	; 0
    185a:	e2 23       	and	r30, r18
    185c:	f3 23       	and	r31, r19
    185e:	ef 2b       	or	r30, r31
    1860:	39 f0       	breq	.+14     	; 0x1870 <_ZN11Framebuffer10drawBitmapEPKhhhhh+0xb0>
    1862:	21 e0       	ldi	r18, 0x01	; 1
    1864:	4e 2d       	mov	r20, r14
    1866:	65 2d       	mov	r22, r5
    1868:	c6 01       	movw	r24, r12
    186a:	0e 94 a7 0b 	call	0x174e	; 0x174e <_ZN11Framebuffer9drawPixelEhhh>
    186e:	06 c0       	rjmp	.+12     	; 0x187c <_ZN11Framebuffer10drawBitmapEPKhhhhh+0xbc>
    1870:	20 e0       	ldi	r18, 0x00	; 0
    1872:	4e 2d       	mov	r20, r14
    1874:	65 2d       	mov	r22, r5
    1876:	c6 01       	movw	r24, r12
    1878:	0e 94 a7 0b 	call	0x174e	; 0x174e <_ZN11Framebuffer9drawPixelEhhh>
    187c:	f3 94       	inc	r15
    187e:	53 94       	inc	r5
    1880:	4f 10       	cpse	r4, r15
    1882:	d7 cf       	rjmp	.-82     	; 0x1832 <_ZN11Framebuffer10drawBitmapEPKhhhhh+0x72>
    1884:	8f ef       	ldi	r24, 0xFF	; 255
    1886:	88 1a       	sub	r8, r24
    1888:	98 0a       	sbc	r9, r24
    188a:	e3 94       	inc	r14
    188c:	e3 10       	cpse	r14, r3
    188e:	c6 cf       	rjmp	.-116    	; 0x181c <_ZN11Framebuffer10drawBitmapEPKhhhhh+0x5c>
    1890:	df 91       	pop	r29
    1892:	cf 91       	pop	r28
    1894:	1f 91       	pop	r17
    1896:	0f 91       	pop	r16
    1898:	ff 90       	pop	r15
    189a:	ef 90       	pop	r14
    189c:	df 90       	pop	r13
    189e:	cf 90       	pop	r12
    18a0:	bf 90       	pop	r11
    18a2:	af 90       	pop	r10
    18a4:	9f 90       	pop	r9
    18a6:	8f 90       	pop	r8
    18a8:	7f 90       	pop	r7
    18aa:	6f 90       	pop	r6
    18ac:	5f 90       	pop	r5
    18ae:	4f 90       	pop	r4
    18b0:	3f 90       	pop	r3
    18b2:	2f 90       	pop	r2
    18b4:	08 95       	ret

000018b6 <_ZN11Framebuffer5clearEv>:
    18b6:	fc 01       	movw	r30, r24
    18b8:	9c 5f       	subi	r25, 0xFC	; 252
    18ba:	11 92       	st	Z+, r1
    18bc:	e8 17       	cp	r30, r24
    18be:	f9 07       	cpc	r31, r25
    18c0:	e1 f7       	brne	.-8      	; 0x18ba <_ZN11Framebuffer5clearEv+0x4>
    18c2:	08 95       	ret

000018c4 <_ZN11FramebufferC1Ev>:
    18c4:	cf 93       	push	r28
    18c6:	df 93       	push	r29
    18c8:	ec 01       	movw	r28, r24
    18ca:	9c 5f       	subi	r25, 0xFC	; 252
    18cc:	0e 94 56 15 	call	0x2aac	; 0x2aac <_ZN7SSD1306C1Ev>
    18d0:	ce 01       	movw	r24, r28
    18d2:	0e 94 5b 0c 	call	0x18b6	; 0x18b6 <_ZN11Framebuffer5clearEv>
    18d6:	df 91       	pop	r29
    18d8:	cf 91       	pop	r28
    18da:	08 95       	ret

000018dc <_ZN11Framebuffer4showEv>:
}

void Framebuffer::show() {
    this->oled.sendFramebuffer(this->buffer);
    18dc:	bc 01       	movw	r22, r24
    18de:	9c 5f       	subi	r25, 0xFC	; 252
    18e0:	0e 94 c6 15 	call	0x2b8c	; 0x2b8c <_ZN7SSD130615sendFramebufferEPh>
    18e4:	08 95       	ret

000018e6 <_ZN3I2CC1Ev>:
For more information, please refer to <http://unlicense.org/>
*/

#include "I2C.h"

I2C::I2C() {}
    18e6:	08 95       	ret

000018e8 <_ZN3I2C4initEh>:

void I2C::init(uint8_t address) {
    this->address = address;
    18e8:	fc 01       	movw	r30, r24
    18ea:	60 83       	st	Z, r22
    TWSR = 0;
    18ec:	10 92 b9 00 	sts	0x00B9, r1	; 0x8000b9 <__DATA_REGION_ORIGIN__+0x59>
    TWBR = ((F_CPU/SCL_CLOCK)-16)/2;
    18f0:	88 e4       	ldi	r24, 0x48	; 72
    18f2:	80 93 b8 00 	sts	0x00B8, r24	; 0x8000b8 <__DATA_REGION_ORIGIN__+0x58>
    18f6:	08 95       	ret

000018f8 <_ZN3I2C5startEv>:
}

uint8_t I2C::start() {
    18f8:	dc 01       	movw	r26, r24
    TWCR = (1<<TWINT) | (1<<TWSTA) | (1<<TWEN);
    18fa:	84 ea       	ldi	r24, 0xA4	; 164
    18fc:	80 93 bc 00 	sts	0x00BC, r24	; 0x8000bc <__DATA_REGION_ORIGIN__+0x5c>
    while(!(TWCR & (1<<TWINT)));
    1900:	ec eb       	ldi	r30, 0xBC	; 188
    1902:	f0 e0       	ldi	r31, 0x00	; 0
    1904:	90 81       	ld	r25, Z
    1906:	99 23       	and	r25, r25
    1908:	ec f7       	brge	.-6      	; 0x1904 <_ZN3I2C5startEv+0xc>

    twi_status_register = TW_STATUS & 0xF8;
    190a:	90 91 b9 00 	lds	r25, 0x00B9	; 0x8000b9 <__DATA_REGION_ORIGIN__+0x59>
    190e:	98 7f       	andi	r25, 0xF8	; 248
    1910:	11 96       	adiw	r26, 0x01	; 1
    1912:	9c 93       	st	X, r25
    1914:	11 97       	sbiw	r26, 0x01	; 1
    if ((this->twi_status_register != TW_START) && (this->twi_status_register != TW_REP_START)) {
    1916:	98 30       	cpi	r25, 0x08	; 8
    1918:	11 f0       	breq	.+4      	; 0x191e <_ZN3I2C5startEv+0x26>
    191a:	90 31       	cpi	r25, 0x10	; 16
    191c:	b9 f4       	brne	.+46     	; 0x194c <_ZN3I2C5startEv+0x54>
        return 1;
    }

    TWDR = address;
    191e:	8c 91       	ld	r24, X
    1920:	80 93 bb 00 	sts	0x00BB, r24	; 0x8000bb <__DATA_REGION_ORIGIN__+0x5b>
    TWCR = (1<<TWINT) | (1<<TWEN);
    1924:	84 e8       	ldi	r24, 0x84	; 132
    1926:	80 93 bc 00 	sts	0x00BC, r24	; 0x8000bc <__DATA_REGION_ORIGIN__+0x5c>

    while(!(TWCR & (1<<TWINT)));
    192a:	ec eb       	ldi	r30, 0xBC	; 188
    192c:	f0 e0       	ldi	r31, 0x00	; 0
    192e:	90 81       	ld	r25, Z
    1930:	99 23       	and	r25, r25
    1932:	ec f7       	brge	.-6      	; 0x192e <_ZN3I2C5startEv+0x36>

    this->twi_status_register = TW_STATUS & 0xF8;
    1934:	90 91 b9 00 	lds	r25, 0x00B9	; 0x8000b9 <__DATA_REGION_ORIGIN__+0x59>
    1938:	98 7f       	andi	r25, 0xF8	; 248
    193a:	11 96       	adiw	r26, 0x01	; 1
    193c:	9c 93       	st	X, r25
    if ((this->twi_status_register != TW_MT_SLA_ACK) && (this->twi_status_register != TW_MR_SLA_ACK)) {
    193e:	98 31       	cpi	r25, 0x18	; 24
    1940:	39 f0       	breq	.+14     	; 0x1950 <_ZN3I2C5startEv+0x58>
    TWCR = (1<<TWINT) | (1<<TWSTA) | (1<<TWEN);
    while(!(TWCR & (1<<TWINT)));

    twi_status_register = TW_STATUS & 0xF8;
    if ((this->twi_status_register != TW_START) && (this->twi_status_register != TW_REP_START)) {
        return 1;
    1942:	81 e0       	ldi	r24, 0x01	; 1
    1944:	90 34       	cpi	r25, 0x40	; 64
    1946:	29 f4       	brne	.+10     	; 0x1952 <_ZN3I2C5startEv+0x5a>
    1948:	80 e0       	ldi	r24, 0x00	; 0
    194a:	08 95       	ret
    194c:	81 e0       	ldi	r24, 0x01	; 1
    194e:	08 95       	ret
    this->twi_status_register = TW_STATUS & 0xF8;
    if ((this->twi_status_register != TW_MT_SLA_ACK) && (this->twi_status_register != TW_MR_SLA_ACK)) {
        return 1;
    }

    return 0;
    1950:	80 e0       	ldi	r24, 0x00	; 0
}
    1952:	08 95       	ret

00001954 <_ZN3I2C5writeEh>:

uint8_t I2C::write(uint8_t data) {
    1954:	dc 01       	movw	r26, r24
    TWDR = data;
    1956:	60 93 bb 00 	sts	0x00BB, r22	; 0x8000bb <__DATA_REGION_ORIGIN__+0x5b>
    TWCR = (1<<TWINT) | (1<<TWEN);
    195a:	84 e8       	ldi	r24, 0x84	; 132
    195c:	80 93 bc 00 	sts	0x00BC, r24	; 0x8000bc <__DATA_REGION_ORIGIN__+0x5c>

    while(!(TWCR & (1<<TWINT)));
    1960:	ec eb       	ldi	r30, 0xBC	; 188
    1962:	f0 e0       	ldi	r31, 0x00	; 0
    1964:	90 81       	ld	r25, Z
    1966:	99 23       	and	r25, r25
    1968:	ec f7       	brge	.-6      	; 0x1964 <_ZN3I2C5writeEh+0x10>

    this->twi_status_register = TW_STATUS & 0xF8;
    196a:	90 91 b9 00 	lds	r25, 0x00B9	; 0x8000b9 <__DATA_REGION_ORIGIN__+0x59>
    196e:	98 7f       	andi	r25, 0xF8	; 248
    1970:	11 96       	adiw	r26, 0x01	; 1
    1972:	9c 93       	st	X, r25
    1974:	81 e0       	ldi	r24, 0x01	; 1
    1976:	98 32       	cpi	r25, 0x28	; 40
    1978:	09 f4       	brne	.+2      	; 0x197c <_ZN3I2C5writeEh+0x28>
    197a:	80 e0       	ldi	r24, 0x00	; 0
    if (this->twi_status_register != TW_MT_DATA_ACK) {
        return 1;
    } else {
        return 0;
    }
}
    197c:	08 95       	ret

0000197e <_ZN3I2C4stopEv>:

void I2C::stop(void) {
    TWCR = (1<<TWINT) | (1<<TWEN) | (1<<TWSTO);
    197e:	84 e9       	ldi	r24, 0x94	; 148
    1980:	80 93 bc 00 	sts	0x00BC, r24	; 0x8000bc <__DATA_REGION_ORIGIN__+0x5c>
    while(TWCR & (1<<TWSTO));
    1984:	ec eb       	ldi	r30, 0xBC	; 188
    1986:	f0 e0       	ldi	r31, 0x00	; 0
    1988:	80 81       	ld	r24, Z
    198a:	84 fd       	sbrc	r24, 4
    198c:	fd cf       	rjmp	.-6      	; 0x1988 <_ZN3I2C4stopEv+0xa>
    198e:	08 95       	ret

00001990 <_Z22draw_settings_selectorh>:
	unsigned int   u;
	
	X=X/Vref;
	u =(unsigned int)((X*4096));
	return u;
}
    1990:	ef 92       	push	r14
    1992:	0f 93       	push	r16
    1994:	cf 93       	push	r28
    1996:	c8 2f       	mov	r28, r24
    1998:	0f 2e       	mov	r0, r31
    199a:	fc e0       	ldi	r31, 0x0C	; 12
    199c:	ef 2e       	mov	r14, r31
    199e:	f0 2d       	mov	r31, r0
    19a0:	03 e0       	ldi	r16, 0x03	; 3
    19a2:	28 e0       	ldi	r18, 0x08	; 8
    19a4:	48 e0       	ldi	r20, 0x08	; 8
    19a6:	68 e9       	ldi	r22, 0x98	; 152
    19a8:	76 e1       	ldi	r23, 0x16	; 22
    19aa:	86 e3       	ldi	r24, 0x36	; 54
    19ac:	91 e0       	ldi	r25, 0x01	; 1
    19ae:	0e 94 e0 0b 	call	0x17c0	; 0x17c0 <_ZN11Framebuffer10drawBitmapEPKhhhhh>
    19b2:	0f 2e       	mov	r0, r31
    19b4:	f7 e1       	ldi	r31, 0x17	; 23
    19b6:	ef 2e       	mov	r14, r31
    19b8:	f0 2d       	mov	r31, r0
    19ba:	28 e0       	ldi	r18, 0x08	; 8
    19bc:	48 e0       	ldi	r20, 0x08	; 8
    19be:	68 e9       	ldi	r22, 0x98	; 152
    19c0:	76 e1       	ldi	r23, 0x16	; 22
    19c2:	86 e3       	ldi	r24, 0x36	; 54
    19c4:	91 e0       	ldi	r25, 0x01	; 1
    19c6:	0e 94 e0 0b 	call	0x17c0	; 0x17c0 <_ZN11Framebuffer10drawBitmapEPKhhhhh>
    19ca:	0f 2e       	mov	r0, r31
    19cc:	f2 e2       	ldi	r31, 0x22	; 34
    19ce:	ef 2e       	mov	r14, r31
    19d0:	f0 2d       	mov	r31, r0
    19d2:	28 e0       	ldi	r18, 0x08	; 8
    19d4:	48 e0       	ldi	r20, 0x08	; 8
    19d6:	68 e9       	ldi	r22, 0x98	; 152
    19d8:	76 e1       	ldi	r23, 0x16	; 22
    19da:	86 e3       	ldi	r24, 0x36	; 54
    19dc:	91 e0       	ldi	r25, 0x01	; 1
    19de:	0e 94 e0 0b 	call	0x17c0	; 0x17c0 <_ZN11Framebuffer10drawBitmapEPKhhhhh>
    19e2:	0f 2e       	mov	r0, r31
    19e4:	fd e2       	ldi	r31, 0x2D	; 45
    19e6:	ef 2e       	mov	r14, r31
    19e8:	f0 2d       	mov	r31, r0
    19ea:	28 e0       	ldi	r18, 0x08	; 8
    19ec:	48 e0       	ldi	r20, 0x08	; 8
    19ee:	68 e9       	ldi	r22, 0x98	; 152
    19f0:	76 e1       	ldi	r23, 0x16	; 22
    19f2:	86 e3       	ldi	r24, 0x36	; 54
    19f4:	91 e0       	ldi	r25, 0x01	; 1
    19f6:	0e 94 e0 0b 	call	0x17c0	; 0x17c0 <_ZN11Framebuffer10drawBitmapEPKhhhhh>
    19fa:	8f ef       	ldi	r24, 0xFF	; 255
    19fc:	8c 0f       	add	r24, r28
    19fe:	81 30       	cpi	r24, 0x01	; 1
    1a00:	a1 f0       	breq	.+40     	; 0x1a2a <_Z22draw_settings_selectorh+0x9a>
    1a02:	28 f0       	brcs	.+10     	; 0x1a0e <_Z22draw_settings_selectorh+0x7e>
    1a04:	82 30       	cpi	r24, 0x02	; 2
    1a06:	f9 f0       	breq	.+62     	; 0x1a46 <_Z22draw_settings_selectorh+0xb6>
    1a08:	83 30       	cpi	r24, 0x03	; 3
    1a0a:	59 f1       	breq	.+86     	; 0x1a62 <_Z22draw_settings_selectorh+0xd2>
    1a0c:	38 c0       	rjmp	.+112    	; 0x1a7e <_Z22draw_settings_selectorh+0xee>
    1a0e:	0f 2e       	mov	r0, r31
    1a10:	fc e0       	ldi	r31, 0x0C	; 12
    1a12:	ef 2e       	mov	r14, r31
    1a14:	f0 2d       	mov	r31, r0
    1a16:	03 e0       	ldi	r16, 0x03	; 3
    1a18:	28 e0       	ldi	r18, 0x08	; 8
    1a1a:	48 e0       	ldi	r20, 0x08	; 8
    1a1c:	60 ea       	ldi	r22, 0xA0	; 160
    1a1e:	76 e1       	ldi	r23, 0x16	; 22
    1a20:	86 e3       	ldi	r24, 0x36	; 54
    1a22:	91 e0       	ldi	r25, 0x01	; 1
    1a24:	0e 94 e0 0b 	call	0x17c0	; 0x17c0 <_ZN11Framebuffer10drawBitmapEPKhhhhh>
    1a28:	36 c0       	rjmp	.+108    	; 0x1a96 <_Z22draw_settings_selectorh+0x106>
    1a2a:	0f 2e       	mov	r0, r31
    1a2c:	f7 e1       	ldi	r31, 0x17	; 23
    1a2e:	ef 2e       	mov	r14, r31
    1a30:	f0 2d       	mov	r31, r0
    1a32:	03 e0       	ldi	r16, 0x03	; 3
    1a34:	28 e0       	ldi	r18, 0x08	; 8
    1a36:	48 e0       	ldi	r20, 0x08	; 8
    1a38:	60 ea       	ldi	r22, 0xA0	; 160
    1a3a:	76 e1       	ldi	r23, 0x16	; 22
    1a3c:	86 e3       	ldi	r24, 0x36	; 54
    1a3e:	91 e0       	ldi	r25, 0x01	; 1
    1a40:	0e 94 e0 0b 	call	0x17c0	; 0x17c0 <_ZN11Framebuffer10drawBitmapEPKhhhhh>
    1a44:	28 c0       	rjmp	.+80     	; 0x1a96 <_Z22draw_settings_selectorh+0x106>
    1a46:	0f 2e       	mov	r0, r31
    1a48:	f2 e2       	ldi	r31, 0x22	; 34
    1a4a:	ef 2e       	mov	r14, r31
    1a4c:	f0 2d       	mov	r31, r0
    1a4e:	03 e0       	ldi	r16, 0x03	; 3
    1a50:	28 e0       	ldi	r18, 0x08	; 8
    1a52:	48 e0       	ldi	r20, 0x08	; 8
    1a54:	60 ea       	ldi	r22, 0xA0	; 160
    1a56:	76 e1       	ldi	r23, 0x16	; 22
    1a58:	86 e3       	ldi	r24, 0x36	; 54
    1a5a:	91 e0       	ldi	r25, 0x01	; 1
    1a5c:	0e 94 e0 0b 	call	0x17c0	; 0x17c0 <_ZN11Framebuffer10drawBitmapEPKhhhhh>
    1a60:	1a c0       	rjmp	.+52     	; 0x1a96 <_Z22draw_settings_selectorh+0x106>
    1a62:	0f 2e       	mov	r0, r31
    1a64:	fd e2       	ldi	r31, 0x2D	; 45
    1a66:	ef 2e       	mov	r14, r31
    1a68:	f0 2d       	mov	r31, r0
    1a6a:	03 e0       	ldi	r16, 0x03	; 3
    1a6c:	28 e0       	ldi	r18, 0x08	; 8
    1a6e:	48 e0       	ldi	r20, 0x08	; 8
    1a70:	60 ea       	ldi	r22, 0xA0	; 160
    1a72:	76 e1       	ldi	r23, 0x16	; 22
    1a74:	86 e3       	ldi	r24, 0x36	; 54
    1a76:	91 e0       	ldi	r25, 0x01	; 1
    1a78:	0e 94 e0 0b 	call	0x17c0	; 0x17c0 <_ZN11Framebuffer10drawBitmapEPKhhhhh>
    1a7c:	0c c0       	rjmp	.+24     	; 0x1a96 <_Z22draw_settings_selectorh+0x106>
    1a7e:	68 94       	set
    1a80:	ee 24       	eor	r14, r14
    1a82:	e4 f8       	bld	r14, 4
    1a84:	00 e1       	ldi	r16, 0x10	; 16
    1a86:	28 e0       	ldi	r18, 0x08	; 8
    1a88:	48 e0       	ldi	r20, 0x08	; 8
    1a8a:	60 ea       	ldi	r22, 0xA0	; 160
    1a8c:	76 e1       	ldi	r23, 0x16	; 22
    1a8e:	86 e3       	ldi	r24, 0x36	; 54
    1a90:	91 e0       	ldi	r25, 0x01	; 1
    1a92:	0e 94 e0 0b 	call	0x17c0	; 0x17c0 <_ZN11Framebuffer10drawBitmapEPKhhhhh>
    1a96:	86 e3       	ldi	r24, 0x36	; 54
    1a98:	91 e0       	ldi	r25, 0x01	; 1
    1a9a:	0e 94 6e 0c 	call	0x18dc	; 0x18dc <_ZN11Framebuffer4showEv>
    1a9e:	cf 91       	pop	r28
    1aa0:	0f 91       	pop	r16
    1aa2:	ef 90       	pop	r14
    1aa4:	08 95       	ret

00001aa6 <_Z23matrix_process_settmainh>:
    1aa6:	88 23       	and	r24, r24
    1aa8:	19 f0       	breq	.+6      	; 0x1ab0 <_Z23matrix_process_settmainh+0xa>
    1aaa:	81 30       	cpi	r24, 0x01	; 1
    1aac:	39 f0       	breq	.+14     	; 0x1abc <_Z23matrix_process_settmainh+0x16>
    1aae:	0b c0       	rjmp	.+22     	; 0x1ac6 <_Z23matrix_process_settmainh+0x20>
    1ab0:	80 91 3a 05 	lds	r24, 0x053A	; 0x80053a <settings_selector>
    1ab4:	8f 5f       	subi	r24, 0xFF	; 255
    1ab6:	80 93 3a 05 	sts	0x053A, r24	; 0x80053a <settings_selector>
    1aba:	05 c0       	rjmp	.+10     	; 0x1ac6 <_Z23matrix_process_settmainh+0x20>
    1abc:	80 91 3a 05 	lds	r24, 0x053A	; 0x80053a <settings_selector>
    1ac0:	81 50       	subi	r24, 0x01	; 1
    1ac2:	80 93 3a 05 	sts	0x053A, r24	; 0x80053a <settings_selector>
    1ac6:	80 91 3a 05 	lds	r24, 0x053A	; 0x80053a <settings_selector>
    1aca:	85 30       	cpi	r24, 0x05	; 5
    1acc:	20 f0       	brcs	.+8      	; 0x1ad6 <_Z23matrix_process_settmainh+0x30>
    1ace:	81 e0       	ldi	r24, 0x01	; 1
    1ad0:	80 93 3a 05 	sts	0x053A, r24	; 0x80053a <settings_selector>
    1ad4:	05 c0       	rjmp	.+10     	; 0x1ae0 <_Z23matrix_process_settmainh+0x3a>
    1ad6:	81 11       	cpse	r24, r1
    1ad8:	03 c0       	rjmp	.+6      	; 0x1ae0 <_Z23matrix_process_settmainh+0x3a>
    1ada:	84 e0       	ldi	r24, 0x04	; 4
    1adc:	80 93 3a 05 	sts	0x053A, r24	; 0x80053a <settings_selector>
    1ae0:	80 91 3a 05 	lds	r24, 0x053A	; 0x80053a <settings_selector>
    1ae4:	0e 94 c8 0c 	call	0x1990	; 0x1990 <_Z22draw_settings_selectorh>
    1ae8:	08 95       	ret

00001aea <_Z13draw_settingsv>:
    1aea:	ef 92       	push	r14
    1aec:	0f 93       	push	r16
    1aee:	86 e3       	ldi	r24, 0x36	; 54
    1af0:	91 e0       	ldi	r25, 0x01	; 1
    1af2:	0e 94 5b 0c 	call	0x18b6	; 0x18b6 <_ZN11Framebuffer5clearEv>
    1af6:	60 91 2c 01 	lds	r22, 0x012C	; 0x80012c <setts>
    1afa:	70 91 2d 01 	lds	r23, 0x012D	; 0x80012d <setts+0x1>
    1afe:	e1 2c       	mov	r14, r1
    1b00:	00 e0       	ldi	r16, 0x00	; 0
    1b02:	20 e8       	ldi	r18, 0x80	; 128
    1b04:	40 e4       	ldi	r20, 0x40	; 64
    1b06:	86 e3       	ldi	r24, 0x36	; 54
    1b08:	91 e0       	ldi	r25, 0x01	; 1
    1b0a:	0e 94 e0 0b 	call	0x17c0	; 0x17c0 <_ZN11Framebuffer10drawBitmapEPKhhhhh>
    1b0e:	81 e0       	ldi	r24, 0x01	; 1
    1b10:	80 93 3a 05 	sts	0x053A, r24	; 0x80053a <settings_selector>
    1b14:	0e 94 c8 0c 	call	0x1990	; 0x1990 <_Z22draw_settings_selectorh>
    1b18:	86 e3       	ldi	r24, 0x36	; 54
    1b1a:	91 e0       	ldi	r25, 0x01	; 1
    1b1c:	0e 94 6e 0c 	call	0x18dc	; 0x18dc <_ZN11Framebuffer4showEv>
    1b20:	0f 91       	pop	r16
    1b22:	ef 90       	pop	r14
    1b24:	08 95       	ret

00001b26 <_Z17func_process_mainv>:
    1b26:	81 e0       	ldi	r24, 0x01	; 1
    1b28:	80 93 3c 05 	sts	0x053C, r24	; 0x80053c <settings_flag>
    1b2c:	28 98       	cbi	0x05, 0	; 5
    1b2e:	0e 94 75 0d 	call	0x1aea	; 0x1aea <_Z13draw_settingsv>
    1b32:	08 95       	ret

00001b34 <_Z11draw_numberihh>:
    1b34:	9f 92       	push	r9
    1b36:	af 92       	push	r10
    1b38:	bf 92       	push	r11
    1b3a:	cf 92       	push	r12
    1b3c:	df 92       	push	r13
    1b3e:	ef 92       	push	r14
    1b40:	ff 92       	push	r15
    1b42:	0f 93       	push	r16
    1b44:	1f 93       	push	r17
    1b46:	cf 93       	push	r28
    1b48:	df 93       	push	r29
    1b4a:	00 d0       	rcall	.+0      	; 0x1b4c <_Z11draw_numberihh+0x18>
    1b4c:	1f 92       	push	r1
    1b4e:	cd b7       	in	r28, 0x3d	; 61
    1b50:	de b7       	in	r29, 0x3e	; 62
    1b52:	9c 01       	movw	r18, r24
    1b54:	f6 2e       	mov	r15, r22
    1b56:	94 2e       	mov	r9, r20
    1b58:	19 82       	std	Y+1, r1	; 0x01
    1b5a:	1a 82       	std	Y+2, r1	; 0x02
    1b5c:	1b 82       	std	Y+3, r1	; 0x03
    1b5e:	89 2b       	or	r24, r25
    1b60:	51 f1       	breq	.+84     	; 0x1bb6 <_Z11draw_numberihh+0x82>
    1b62:	40 e0       	ldi	r20, 0x00	; 0
    1b64:	0a e0       	ldi	r16, 0x0A	; 10
    1b66:	10 e0       	ldi	r17, 0x00	; 0
    1b68:	c9 01       	movw	r24, r18
    1b6a:	b8 01       	movw	r22, r16
    1b6c:	0e 94 1f 18 	call	0x303e	; 0x303e <__divmodhi4>
    1b70:	9b 01       	movw	r18, r22
    1b72:	e1 e0       	ldi	r30, 0x01	; 1
    1b74:	f0 e0       	ldi	r31, 0x00	; 0
    1b76:	ec 0f       	add	r30, r28
    1b78:	fd 1f       	adc	r31, r29
    1b7a:	e4 0f       	add	r30, r20
    1b7c:	f1 1d       	adc	r31, r1
    1b7e:	80 83       	st	Z, r24
    1b80:	4f 5f       	subi	r20, 0xFF	; 255
    1b82:	67 2b       	or	r22, r23
    1b84:	89 f7       	brne	.-30     	; 0x1b68 <_Z11draw_numberihh+0x34>
    1b86:	17 c0       	rjmp	.+46     	; 0x1bb6 <_Z11draw_numberihh+0x82>
    1b88:	d6 01       	movw	r26, r12
    1b8a:	ee 91       	ld	r30, -X
    1b8c:	6d 01       	movw	r12, r26
    1b8e:	f0 e0       	ldi	r31, 0x00	; 0
    1b90:	ee 0f       	add	r30, r30
    1b92:	ff 1f       	adc	r31, r31
    1b94:	e8 5e       	subi	r30, 0xE8	; 232
    1b96:	fe 4f       	sbci	r31, 0xFE	; 254
    1b98:	60 81       	ld	r22, Z
    1b9a:	71 81       	ldd	r23, Z+1	; 0x01
    1b9c:	e9 2c       	mov	r14, r9
    1b9e:	01 2f       	mov	r16, r17
    1ba0:	28 e0       	ldi	r18, 0x08	; 8
    1ba2:	48 e0       	ldi	r20, 0x08	; 8
    1ba4:	86 e3       	ldi	r24, 0x36	; 54
    1ba6:	91 e0       	ldi	r25, 0x01	; 1
    1ba8:	0e 94 e0 0b 	call	0x17c0	; 0x17c0 <_ZN11Framebuffer10drawBitmapEPKhhhhh>
    1bac:	16 5f       	subi	r17, 0xF6	; 246
    1bae:	ac 14       	cp	r10, r12
    1bb0:	bd 04       	cpc	r11, r13
    1bb2:	51 f7       	brne	.-44     	; 0x1b88 <_Z11draw_numberihh+0x54>
    1bb4:	09 c0       	rjmp	.+18     	; 0x1bc8 <_Z11draw_numberihh+0x94>
    1bb6:	6e 01       	movw	r12, r28
    1bb8:	b4 e0       	ldi	r27, 0x04	; 4
    1bba:	cb 0e       	add	r12, r27
    1bbc:	d1 1c       	adc	r13, r1
    1bbe:	ce 01       	movw	r24, r28
    1bc0:	01 96       	adiw	r24, 0x01	; 1
    1bc2:	5c 01       	movw	r10, r24
    1bc4:	1f 2d       	mov	r17, r15
    1bc6:	e0 cf       	rjmp	.-64     	; 0x1b88 <_Z11draw_numberihh+0x54>
    1bc8:	0f 90       	pop	r0
    1bca:	0f 90       	pop	r0
    1bcc:	0f 90       	pop	r0
    1bce:	df 91       	pop	r29
    1bd0:	cf 91       	pop	r28
    1bd2:	1f 91       	pop	r17
    1bd4:	0f 91       	pop	r16
    1bd6:	ff 90       	pop	r15
    1bd8:	ef 90       	pop	r14
    1bda:	df 90       	pop	r13
    1bdc:	cf 90       	pop	r12
    1bde:	bf 90       	pop	r11
    1be0:	af 90       	pop	r10
    1be2:	9f 90       	pop	r9
    1be4:	08 95       	ret

00001be6 <_Z19matrix_process_timeh>:
    1be6:	81 30       	cpi	r24, 0x01	; 1
    1be8:	61 f0       	breq	.+24     	; 0x1c02 <_Z19matrix_process_timeh+0x1c>
    1bea:	28 f0       	brcs	.+10     	; 0x1bf6 <_Z19matrix_process_timeh+0x10>
    1bec:	82 30       	cpi	r24, 0x02	; 2
    1bee:	79 f0       	breq	.+30     	; 0x1c0e <_Z19matrix_process_timeh+0x28>
    1bf0:	83 30       	cpi	r24, 0x03	; 3
    1bf2:	99 f0       	breq	.+38     	; 0x1c1a <_Z19matrix_process_timeh+0x34>
    1bf4:	17 c0       	rjmp	.+46     	; 0x1c24 <_Z19matrix_process_timeh+0x3e>
    1bf6:	80 91 00 01 	lds	r24, 0x0100	; 0x800100 <__data_start>
    1bfa:	81 50       	subi	r24, 0x01	; 1
    1bfc:	80 93 00 01 	sts	0x0100, r24	; 0x800100 <__data_start>
    1c00:	11 c0       	rjmp	.+34     	; 0x1c24 <_Z19matrix_process_timeh+0x3e>
    1c02:	80 91 00 01 	lds	r24, 0x0100	; 0x800100 <__data_start>
    1c06:	8f 5f       	subi	r24, 0xFF	; 255
    1c08:	80 93 00 01 	sts	0x0100, r24	; 0x800100 <__data_start>
    1c0c:	0b c0       	rjmp	.+22     	; 0x1c24 <_Z19matrix_process_timeh+0x3e>
    1c0e:	80 91 02 01 	lds	r24, 0x0102	; 0x800102 <current_choice>
    1c12:	81 50       	subi	r24, 0x01	; 1
    1c14:	80 93 02 01 	sts	0x0102, r24	; 0x800102 <current_choice>
    1c18:	05 c0       	rjmp	.+10     	; 0x1c24 <_Z19matrix_process_timeh+0x3e>
    1c1a:	80 91 02 01 	lds	r24, 0x0102	; 0x800102 <current_choice>
    1c1e:	8f 5f       	subi	r24, 0xFF	; 255
    1c20:	80 93 02 01 	sts	0x0102, r24	; 0x800102 <current_choice>
    1c24:	80 91 02 01 	lds	r24, 0x0102	; 0x800102 <current_choice>
    1c28:	85 30       	cpi	r24, 0x05	; 5
    1c2a:	18 f0       	brcs	.+6      	; 0x1c32 <_Z19matrix_process_timeh+0x4c>
    1c2c:	84 e0       	ldi	r24, 0x04	; 4
    1c2e:	80 93 02 01 	sts	0x0102, r24	; 0x800102 <current_choice>
    1c32:	80 91 00 01 	lds	r24, 0x0100	; 0x800100 <__data_start>
    1c36:	46 e1       	ldi	r20, 0x16	; 22
    1c38:	66 e2       	ldi	r22, 0x26	; 38
    1c3a:	90 e0       	ldi	r25, 0x00	; 0
    1c3c:	0e 94 9a 0d 	call	0x1b34	; 0x1b34 <_Z11draw_numberihh>
    1c40:	e0 91 02 01 	lds	r30, 0x0102	; 0x800102 <current_choice>
    1c44:	f0 e0       	ldi	r31, 0x00	; 0
    1c46:	ed 5f       	subi	r30, 0xFD	; 253
    1c48:	fe 4f       	sbci	r31, 0xFE	; 254
    1c4a:	80 81       	ld	r24, Z
    1c4c:	45 e2       	ldi	r20, 0x25	; 37
    1c4e:	67 e4       	ldi	r22, 0x47	; 71
    1c50:	90 e0       	ldi	r25, 0x00	; 0
    1c52:	0e 94 9a 0d 	call	0x1b34	; 0x1b34 <_Z11draw_numberihh>
    1c56:	86 e3       	ldi	r24, 0x36	; 54
    1c58:	91 e0       	ldi	r25, 0x01	; 1
    1c5a:	0e 94 6e 0c 	call	0x18dc	; 0x18dc <_ZN11Framebuffer4showEv>
    1c5e:	08 95       	ret

00001c60 <_Z19matrix_process_gateh>:
    1c60:	90 91 0b 01 	lds	r25, 0x010B	; 0x80010b <setcurrentCell>
    1c64:	99 30       	cpi	r25, 0x09	; 9
    1c66:	d9 f4       	brne	.+54     	; 0x1c9e <_Z19matrix_process_gateh+0x3e>
    1c68:	80 93 3f 05 	sts	0x053F, r24	; 0x80053f <currentCell>
    1c6c:	4a e1       	ldi	r20, 0x1A	; 26
    1c6e:	62 e4       	ldi	r22, 0x42	; 66
    1c70:	90 e0       	ldi	r25, 0x00	; 0
    1c72:	0e 94 9a 0d 	call	0x1b34	; 0x1b34 <_Z11draw_numberihh>
    1c76:	80 91 3f 05 	lds	r24, 0x053F	; 0x80053f <currentCell>
    1c7a:	90 e0       	ldi	r25, 0x00	; 0
    1c7c:	fc 01       	movw	r30, r24
    1c7e:	ee 0f       	add	r30, r30
    1c80:	ff 1f       	adc	r31, r31
    1c82:	ee 0f       	add	r30, r30
    1c84:	ff 1f       	adc	r31, r31
    1c86:	8e 0f       	add	r24, r30
    1c88:	9f 1f       	adc	r25, r31
    1c8a:	fc 01       	movw	r30, r24
    1c8c:	ea 59       	subi	r30, 0x9A	; 154
    1c8e:	fa 4f       	sbci	r31, 0xFA	; 250
    1c90:	84 81       	ldd	r24, Z+4	; 0x04
    1c92:	49 e2       	ldi	r20, 0x29	; 41
    1c94:	67 e3       	ldi	r22, 0x37	; 55
    1c96:	90 e0       	ldi	r25, 0x00	; 0
    1c98:	0e 94 9a 0d 	call	0x1b34	; 0x1b34 <_Z11draw_numberihh>
    1c9c:	17 c0       	rjmp	.+46     	; 0x1ccc <_Z19matrix_process_gateh+0x6c>
    1c9e:	88 23       	and	r24, r24
    1ca0:	19 f0       	breq	.+6      	; 0x1ca8 <_Z19matrix_process_gateh+0x48>
    1ca2:	81 30       	cpi	r24, 0x01	; 1
    1ca4:	39 f0       	breq	.+14     	; 0x1cb4 <_Z19matrix_process_gateh+0x54>
    1ca6:	0b c0       	rjmp	.+22     	; 0x1cbe <_Z19matrix_process_gateh+0x5e>
    1ca8:	e1 e6       	ldi	r30, 0x61	; 97
    1caa:	f5 e0       	ldi	r31, 0x05	; 5
    1cac:	84 81       	ldd	r24, Z+4	; 0x04
    1cae:	8f 5f       	subi	r24, 0xFF	; 255
    1cb0:	84 83       	std	Z+4, r24	; 0x04
    1cb2:	05 c0       	rjmp	.+10     	; 0x1cbe <_Z19matrix_process_gateh+0x5e>
    1cb4:	e1 e6       	ldi	r30, 0x61	; 97
    1cb6:	f5 e0       	ldi	r31, 0x05	; 5
    1cb8:	84 81       	ldd	r24, Z+4	; 0x04
    1cba:	81 50       	subi	r24, 0x01	; 1
    1cbc:	84 83       	std	Z+4, r24	; 0x04
    1cbe:	80 91 65 05 	lds	r24, 0x0565	; 0x800565 <cellSet+0x4>
    1cc2:	49 e2       	ldi	r20, 0x29	; 41
    1cc4:	67 e3       	ldi	r22, 0x37	; 55
    1cc6:	90 e0       	ldi	r25, 0x00	; 0
    1cc8:	0e 94 9a 0d 	call	0x1b34	; 0x1b34 <_Z11draw_numberihh>
    1ccc:	86 e3       	ldi	r24, 0x36	; 54
    1cce:	91 e0       	ldi	r25, 0x01	; 1
    1cd0:	0e 94 6e 0c 	call	0x18dc	; 0x18dc <_ZN11Framebuffer4showEv>
    1cd4:	08 95       	ret

00001cd6 <_Z20matrix_process_chordh>:
    1cd6:	cf 93       	push	r28
    1cd8:	df 93       	push	r29
    1cda:	90 91 0b 01 	lds	r25, 0x010B	; 0x80010b <setcurrentCell>
    1cde:	99 30       	cpi	r25, 0x09	; 9
    1ce0:	61 f4       	brne	.+24     	; 0x1cfa <_Z20matrix_process_chordh+0x24>
    1ce2:	80 93 3f 05 	sts	0x053F, r24	; 0x80053f <currentCell>
    1ce6:	4a e1       	ldi	r20, 0x1A	; 26
    1ce8:	62 e4       	ldi	r22, 0x42	; 66
    1cea:	90 e0       	ldi	r25, 0x00	; 0
    1cec:	0e 94 9a 0d 	call	0x1b34	; 0x1b34 <_Z11draw_numberihh>
    1cf0:	86 e3       	ldi	r24, 0x36	; 54
    1cf2:	91 e0       	ldi	r25, 0x01	; 1
    1cf4:	0e 94 6e 0c 	call	0x18dc	; 0x18dc <_ZN11Framebuffer4showEv>
    1cf8:	56 c0       	rjmp	.+172    	; 0x1da6 <_Z20matrix_process_chordh+0xd0>
    1cfa:	90 e0       	ldi	r25, 0x00	; 0
    1cfc:	88 30       	cpi	r24, 0x08	; 8
    1cfe:	91 05       	cpc	r25, r1
    1d00:	a0 f5       	brcc	.+104    	; 0x1d6a <_Z20matrix_process_chordh+0x94>
    1d02:	fc 01       	movw	r30, r24
    1d04:	ec 5c       	subi	r30, 0xCC	; 204
    1d06:	ff 4f       	sbci	r31, 0xFF	; 255
    1d08:	0c 94 52 18 	jmp	0x30a4	; 0x30a4 <__tablejump2__>
    1d0c:	e1 e6       	ldi	r30, 0x61	; 97
    1d0e:	f5 e0       	ldi	r31, 0x05	; 5
    1d10:	83 81       	ldd	r24, Z+3	; 0x03
    1d12:	81 50       	subi	r24, 0x01	; 1
    1d14:	83 83       	std	Z+3, r24	; 0x03
    1d16:	29 c0       	rjmp	.+82     	; 0x1d6a <_Z20matrix_process_chordh+0x94>
    1d18:	e1 e6       	ldi	r30, 0x61	; 97
    1d1a:	f5 e0       	ldi	r31, 0x05	; 5
    1d1c:	83 81       	ldd	r24, Z+3	; 0x03
    1d1e:	8f 5f       	subi	r24, 0xFF	; 255
    1d20:	83 83       	std	Z+3, r24	; 0x03
    1d22:	23 c0       	rjmp	.+70     	; 0x1d6a <_Z20matrix_process_chordh+0x94>
    1d24:	e1 e6       	ldi	r30, 0x61	; 97
    1d26:	f5 e0       	ldi	r31, 0x05	; 5
    1d28:	82 81       	ldd	r24, Z+2	; 0x02
    1d2a:	81 50       	subi	r24, 0x01	; 1
    1d2c:	82 83       	std	Z+2, r24	; 0x02
    1d2e:	1d c0       	rjmp	.+58     	; 0x1d6a <_Z20matrix_process_chordh+0x94>
    1d30:	e1 e6       	ldi	r30, 0x61	; 97
    1d32:	f5 e0       	ldi	r31, 0x05	; 5
    1d34:	82 81       	ldd	r24, Z+2	; 0x02
    1d36:	8f 5f       	subi	r24, 0xFF	; 255
    1d38:	82 83       	std	Z+2, r24	; 0x02
    1d3a:	17 c0       	rjmp	.+46     	; 0x1d6a <_Z20matrix_process_chordh+0x94>
    1d3c:	e1 e6       	ldi	r30, 0x61	; 97
    1d3e:	f5 e0       	ldi	r31, 0x05	; 5
    1d40:	81 81       	ldd	r24, Z+1	; 0x01
    1d42:	81 50       	subi	r24, 0x01	; 1
    1d44:	81 83       	std	Z+1, r24	; 0x01
    1d46:	11 c0       	rjmp	.+34     	; 0x1d6a <_Z20matrix_process_chordh+0x94>
    1d48:	e1 e6       	ldi	r30, 0x61	; 97
    1d4a:	f5 e0       	ldi	r31, 0x05	; 5
    1d4c:	81 81       	ldd	r24, Z+1	; 0x01
    1d4e:	8f 5f       	subi	r24, 0xFF	; 255
    1d50:	81 83       	std	Z+1, r24	; 0x01
    1d52:	0b c0       	rjmp	.+22     	; 0x1d6a <_Z20matrix_process_chordh+0x94>
    1d54:	e1 e6       	ldi	r30, 0x61	; 97
    1d56:	f5 e0       	ldi	r31, 0x05	; 5
    1d58:	80 81       	ld	r24, Z
    1d5a:	81 50       	subi	r24, 0x01	; 1
    1d5c:	80 83       	st	Z, r24
    1d5e:	05 c0       	rjmp	.+10     	; 0x1d6a <_Z20matrix_process_chordh+0x94>
    1d60:	e1 e6       	ldi	r30, 0x61	; 97
    1d62:	f5 e0       	ldi	r31, 0x05	; 5
    1d64:	80 81       	ld	r24, Z
    1d66:	8f 5f       	subi	r24, 0xFF	; 255
    1d68:	80 83       	st	Z, r24
    1d6a:	c1 e6       	ldi	r28, 0x61	; 97
    1d6c:	d5 e0       	ldi	r29, 0x05	; 5
    1d6e:	8b 81       	ldd	r24, Y+3	; 0x03
    1d70:	4e e2       	ldi	r20, 0x2E	; 46
    1d72:	62 e0       	ldi	r22, 0x02	; 2
    1d74:	90 e0       	ldi	r25, 0x00	; 0
    1d76:	0e 94 9a 0d 	call	0x1b34	; 0x1b34 <_Z11draw_numberihh>
    1d7a:	8a 81       	ldd	r24, Y+2	; 0x02
    1d7c:	4e e2       	ldi	r20, 0x2E	; 46
    1d7e:	62 e2       	ldi	r22, 0x22	; 34
    1d80:	90 e0       	ldi	r25, 0x00	; 0
    1d82:	0e 94 9a 0d 	call	0x1b34	; 0x1b34 <_Z11draw_numberihh>
    1d86:	89 81       	ldd	r24, Y+1	; 0x01
    1d88:	4e e2       	ldi	r20, 0x2E	; 46
    1d8a:	62 e4       	ldi	r22, 0x42	; 66
    1d8c:	90 e0       	ldi	r25, 0x00	; 0
    1d8e:	0e 94 9a 0d 	call	0x1b34	; 0x1b34 <_Z11draw_numberihh>
    1d92:	88 81       	ld	r24, Y
    1d94:	4e e2       	ldi	r20, 0x2E	; 46
    1d96:	62 e6       	ldi	r22, 0x62	; 98
    1d98:	90 e0       	ldi	r25, 0x00	; 0
    1d9a:	0e 94 9a 0d 	call	0x1b34	; 0x1b34 <_Z11draw_numberihh>
    1d9e:	86 e3       	ldi	r24, 0x36	; 54
    1da0:	91 e0       	ldi	r25, 0x01	; 1
    1da2:	0e 94 6e 0c 	call	0x18dc	; 0x18dc <_ZN11Framebuffer4showEv>
    1da6:	df 91       	pop	r29
    1da8:	cf 91       	pop	r28
    1daa:	08 95       	ret

00001dac <_Z10draw_chordh>:
    1dac:	cf 93       	push	r28
    1dae:	df 93       	push	r29
    1db0:	c8 2f       	mov	r28, r24
    1db2:	d0 e0       	ldi	r29, 0x00	; 0
    1db4:	43 e1       	ldi	r20, 0x13	; 19
    1db6:	6b e4       	ldi	r22, 0x4B	; 75
    1db8:	ce 01       	movw	r24, r28
    1dba:	0e 94 9a 0d 	call	0x1b34	; 0x1b34 <_Z11draw_numberihh>
    1dbe:	ce 01       	movw	r24, r28
    1dc0:	88 0f       	add	r24, r24
    1dc2:	99 1f       	adc	r25, r25
    1dc4:	88 0f       	add	r24, r24
    1dc6:	99 1f       	adc	r25, r25
    1dc8:	c8 0f       	add	r28, r24
    1dca:	d9 1f       	adc	r29, r25
    1dcc:	ca 59       	subi	r28, 0x9A	; 154
    1dce:	da 4f       	sbci	r29, 0xFA	; 250
    1dd0:	8b 81       	ldd	r24, Y+3	; 0x03
    1dd2:	4e e2       	ldi	r20, 0x2E	; 46
    1dd4:	62 e0       	ldi	r22, 0x02	; 2
    1dd6:	90 e0       	ldi	r25, 0x00	; 0
    1dd8:	0e 94 9a 0d 	call	0x1b34	; 0x1b34 <_Z11draw_numberihh>
    1ddc:	8a 81       	ldd	r24, Y+2	; 0x02
    1dde:	4e e2       	ldi	r20, 0x2E	; 46
    1de0:	62 e2       	ldi	r22, 0x22	; 34
    1de2:	90 e0       	ldi	r25, 0x00	; 0
    1de4:	0e 94 9a 0d 	call	0x1b34	; 0x1b34 <_Z11draw_numberihh>
    1de8:	89 81       	ldd	r24, Y+1	; 0x01
    1dea:	4e e2       	ldi	r20, 0x2E	; 46
    1dec:	62 e4       	ldi	r22, 0x42	; 66
    1dee:	90 e0       	ldi	r25, 0x00	; 0
    1df0:	0e 94 9a 0d 	call	0x1b34	; 0x1b34 <_Z11draw_numberihh>
    1df4:	88 81       	ld	r24, Y
    1df6:	4e e2       	ldi	r20, 0x2E	; 46
    1df8:	62 e6       	ldi	r22, 0x62	; 98
    1dfa:	90 e0       	ldi	r25, 0x00	; 0
    1dfc:	0e 94 9a 0d 	call	0x1b34	; 0x1b34 <_Z11draw_numberihh>
    1e00:	86 e3       	ldi	r24, 0x36	; 54
    1e02:	91 e0       	ldi	r25, 0x01	; 1
    1e04:	0e 94 6e 0c 	call	0x18dc	; 0x18dc <_ZN11Framebuffer4showEv>
    1e08:	df 91       	pop	r29
    1e0a:	cf 91       	pop	r28
    1e0c:	08 95       	ret

00001e0e <_Z9draw_mainv>:
    1e0e:	ef 92       	push	r14
    1e10:	0f 93       	push	r16
    1e12:	86 e3       	ldi	r24, 0x36	; 54
    1e14:	91 e0       	ldi	r25, 0x01	; 1
    1e16:	0e 94 5b 0c 	call	0x18b6	; 0x18b6 <_ZN11Framebuffer5clearEv>
    1e1a:	e1 2c       	mov	r14, r1
    1e1c:	00 e0       	ldi	r16, 0x00	; 0
    1e1e:	20 e8       	ldi	r18, 0x80	; 128
    1e20:	42 e2       	ldi	r20, 0x22	; 34
    1e22:	68 e7       	ldi	r22, 0x78	; 120
    1e24:	74 e1       	ldi	r23, 0x14	; 20
    1e26:	86 e3       	ldi	r24, 0x36	; 54
    1e28:	91 e0       	ldi	r25, 0x01	; 1
    1e2a:	0e 94 e0 0b 	call	0x17c0	; 0x17c0 <_ZN11Framebuffer10drawBitmapEPKhhhhh>
    1e2e:	80 91 3f 05 	lds	r24, 0x053F	; 0x80053f <currentCell>
    1e32:	0e 94 d6 0e 	call	0x1dac	; 0x1dac <_Z10draw_chordh>
    1e36:	86 e3       	ldi	r24, 0x36	; 54
    1e38:	91 e0       	ldi	r25, 0x01	; 1
    1e3a:	0e 94 6e 0c 	call	0x18dc	; 0x18dc <_ZN11Framebuffer4showEv>
    1e3e:	0f 91       	pop	r16
    1e40:	ef 90       	pop	r14
    1e42:	08 95       	ret

00001e44 <_Z17func_process_gatev>:
    1e44:	80 91 0b 01 	lds	r24, 0x010B	; 0x80010b <setcurrentCell>
    1e48:	89 30       	cpi	r24, 0x09	; 9
    1e4a:	b1 f4       	brne	.+44     	; 0x1e78 <_Z17func_process_gatev+0x34>
    1e4c:	e0 91 3f 05 	lds	r30, 0x053F	; 0x80053f <currentCell>
    1e50:	e0 93 0b 01 	sts	0x010B, r30	; 0x80010b <setcurrentCell>
    1e54:	f0 e0       	ldi	r31, 0x00	; 0
    1e56:	cf 01       	movw	r24, r30
    1e58:	88 0f       	add	r24, r24
    1e5a:	99 1f       	adc	r25, r25
    1e5c:	88 0f       	add	r24, r24
    1e5e:	99 1f       	adc	r25, r25
    1e60:	e8 0f       	add	r30, r24
    1e62:	f9 1f       	adc	r31, r25
    1e64:	ea 59       	subi	r30, 0x9A	; 154
    1e66:	fa 4f       	sbci	r31, 0xFA	; 250
    1e68:	85 e0       	ldi	r24, 0x05	; 5
    1e6a:	a1 e6       	ldi	r26, 0x61	; 97
    1e6c:	b5 e0       	ldi	r27, 0x05	; 5
    1e6e:	01 90       	ld	r0, Z+
    1e70:	0d 92       	st	X+, r0
    1e72:	8a 95       	dec	r24
    1e74:	e1 f7       	brne	.-8      	; 0x1e6e <_Z17func_process_gatev+0x2a>
    1e76:	08 95       	ret
    1e78:	0e 94 07 0f 	call	0x1e0e	; 0x1e0e <_Z9draw_mainv>
    1e7c:	10 92 3c 05 	sts	0x053C, r1	; 0x80053c <settings_flag>
    1e80:	10 92 3b 05 	sts	0x053B, r1	; 0x80053b <current_sett_win>
    1e84:	89 e0       	ldi	r24, 0x09	; 9
    1e86:	80 93 0b 01 	sts	0x010B, r24	; 0x80010b <setcurrentCell>
    1e8a:	a0 91 3f 05 	lds	r26, 0x053F	; 0x80053f <currentCell>
    1e8e:	b0 e0       	ldi	r27, 0x00	; 0
    1e90:	cd 01       	movw	r24, r26
    1e92:	88 0f       	add	r24, r24
    1e94:	99 1f       	adc	r25, r25
    1e96:	88 0f       	add	r24, r24
    1e98:	99 1f       	adc	r25, r25
    1e9a:	a8 0f       	add	r26, r24
    1e9c:	b9 1f       	adc	r27, r25
    1e9e:	aa 59       	subi	r26, 0x9A	; 154
    1ea0:	ba 4f       	sbci	r27, 0xFA	; 250
    1ea2:	85 e0       	ldi	r24, 0x05	; 5
    1ea4:	e1 e6       	ldi	r30, 0x61	; 97
    1ea6:	f5 e0       	ldi	r31, 0x05	; 5
    1ea8:	01 90       	ld	r0, Z+
    1eaa:	0d 92       	st	X+, r0
    1eac:	8a 95       	dec	r24
    1eae:	e1 f7       	brne	.-8      	; 0x1ea8 <_Z17func_process_gatev+0x64>
    1eb0:	08 95       	ret

00001eb2 <_Z18func_process_chordv>:
    1eb2:	cf 93       	push	r28
    1eb4:	df 93       	push	r29
    1eb6:	80 91 0b 01 	lds	r24, 0x010B	; 0x80010b <setcurrentCell>
    1eba:	89 30       	cpi	r24, 0x09	; 9
    1ebc:	a1 f5       	brne	.+104    	; 0x1f26 <_Z18func_process_chordv+0x74>
    1ebe:	80 91 3f 05 	lds	r24, 0x053F	; 0x80053f <currentCell>
    1ec2:	80 93 0b 01 	sts	0x010B, r24	; 0x80010b <setcurrentCell>
    1ec6:	90 e0       	ldi	r25, 0x00	; 0
    1ec8:	fc 01       	movw	r30, r24
    1eca:	ee 0f       	add	r30, r30
    1ecc:	ff 1f       	adc	r31, r31
    1ece:	ee 0f       	add	r30, r30
    1ed0:	ff 1f       	adc	r31, r31
    1ed2:	e8 0f       	add	r30, r24
    1ed4:	f9 1f       	adc	r31, r25
    1ed6:	ea 59       	subi	r30, 0x9A	; 154
    1ed8:	fa 4f       	sbci	r31, 0xFA	; 250
    1eda:	85 e0       	ldi	r24, 0x05	; 5
    1edc:	a1 e6       	ldi	r26, 0x61	; 97
    1ede:	b5 e0       	ldi	r27, 0x05	; 5
    1ee0:	01 90       	ld	r0, Z+
    1ee2:	0d 92       	st	X+, r0
    1ee4:	8a 95       	dec	r24
    1ee6:	e1 f7       	brne	.-8      	; 0x1ee0 <_Z18func_process_chordv+0x2e>
    1ee8:	c1 e6       	ldi	r28, 0x61	; 97
    1eea:	d5 e0       	ldi	r29, 0x05	; 5
    1eec:	8b 81       	ldd	r24, Y+3	; 0x03
    1eee:	4e e2       	ldi	r20, 0x2E	; 46
    1ef0:	62 e0       	ldi	r22, 0x02	; 2
    1ef2:	90 e0       	ldi	r25, 0x00	; 0
    1ef4:	0e 94 9a 0d 	call	0x1b34	; 0x1b34 <_Z11draw_numberihh>
    1ef8:	8a 81       	ldd	r24, Y+2	; 0x02
    1efa:	4e e2       	ldi	r20, 0x2E	; 46
    1efc:	62 e2       	ldi	r22, 0x22	; 34
    1efe:	90 e0       	ldi	r25, 0x00	; 0
    1f00:	0e 94 9a 0d 	call	0x1b34	; 0x1b34 <_Z11draw_numberihh>
    1f04:	89 81       	ldd	r24, Y+1	; 0x01
    1f06:	4e e2       	ldi	r20, 0x2E	; 46
    1f08:	62 e4       	ldi	r22, 0x42	; 66
    1f0a:	90 e0       	ldi	r25, 0x00	; 0
    1f0c:	0e 94 9a 0d 	call	0x1b34	; 0x1b34 <_Z11draw_numberihh>
    1f10:	88 81       	ld	r24, Y
    1f12:	4e e2       	ldi	r20, 0x2E	; 46
    1f14:	62 e6       	ldi	r22, 0x62	; 98
    1f16:	90 e0       	ldi	r25, 0x00	; 0
    1f18:	0e 94 9a 0d 	call	0x1b34	; 0x1b34 <_Z11draw_numberihh>
    1f1c:	86 e3       	ldi	r24, 0x36	; 54
    1f1e:	91 e0       	ldi	r25, 0x01	; 1
    1f20:	0e 94 6e 0c 	call	0x18dc	; 0x18dc <_ZN11Framebuffer4showEv>
    1f24:	1c c0       	rjmp	.+56     	; 0x1f5e <_Z18func_process_chordv+0xac>
    1f26:	0e 94 07 0f 	call	0x1e0e	; 0x1e0e <_Z9draw_mainv>
    1f2a:	89 e0       	ldi	r24, 0x09	; 9
    1f2c:	80 93 0b 01 	sts	0x010B, r24	; 0x80010b <setcurrentCell>
    1f30:	10 92 3c 05 	sts	0x053C, r1	; 0x80053c <settings_flag>
    1f34:	10 92 3b 05 	sts	0x053B, r1	; 0x80053b <current_sett_win>
    1f38:	a0 91 3f 05 	lds	r26, 0x053F	; 0x80053f <currentCell>
    1f3c:	b0 e0       	ldi	r27, 0x00	; 0
    1f3e:	cd 01       	movw	r24, r26
    1f40:	88 0f       	add	r24, r24
    1f42:	99 1f       	adc	r25, r25
    1f44:	88 0f       	add	r24, r24
    1f46:	99 1f       	adc	r25, r25
    1f48:	a8 0f       	add	r26, r24
    1f4a:	b9 1f       	adc	r27, r25
    1f4c:	aa 59       	subi	r26, 0x9A	; 154
    1f4e:	ba 4f       	sbci	r27, 0xFA	; 250
    1f50:	85 e0       	ldi	r24, 0x05	; 5
    1f52:	e1 e6       	ldi	r30, 0x61	; 97
    1f54:	f5 e0       	ldi	r31, 0x05	; 5
    1f56:	01 90       	ld	r0, Z+
    1f58:	0d 92       	st	X+, r0
    1f5a:	8a 95       	dec	r24
    1f5c:	e1 f7       	brne	.-8      	; 0x1f56 <_Z18func_process_chordv+0xa4>
    1f5e:	df 91       	pop	r29
    1f60:	cf 91       	pop	r28
    1f62:	08 95       	ret

00001f64 <_Z13draw_set_timev>:
    1f64:	ef 92       	push	r14
    1f66:	0f 93       	push	r16
    1f68:	86 e3       	ldi	r24, 0x36	; 54
    1f6a:	91 e0       	ldi	r25, 0x01	; 1
    1f6c:	0e 94 5b 0c 	call	0x18b6	; 0x18b6 <_ZN11Framebuffer5clearEv>
    1f70:	e0 91 3b 05 	lds	r30, 0x053B	; 0x80053b <current_sett_win>
    1f74:	f0 e0       	ldi	r31, 0x00	; 0
    1f76:	ee 0f       	add	r30, r30
    1f78:	ff 1f       	adc	r31, r31
    1f7a:	e4 5d       	subi	r30, 0xD4	; 212
    1f7c:	fe 4f       	sbci	r31, 0xFE	; 254
    1f7e:	60 81       	ld	r22, Z
    1f80:	71 81       	ldd	r23, Z+1	; 0x01
    1f82:	e1 2c       	mov	r14, r1
    1f84:	00 e0       	ldi	r16, 0x00	; 0
    1f86:	20 e8       	ldi	r18, 0x80	; 128
    1f88:	40 e4       	ldi	r20, 0x40	; 64
    1f8a:	86 e3       	ldi	r24, 0x36	; 54
    1f8c:	91 e0       	ldi	r25, 0x01	; 1
    1f8e:	0e 94 e0 0b 	call	0x17c0	; 0x17c0 <_ZN11Framebuffer10drawBitmapEPKhhhhh>
    1f92:	80 91 08 01 	lds	r24, 0x0108	; 0x800108 <bpm>
    1f96:	46 e1       	ldi	r20, 0x16	; 22
    1f98:	66 e2       	ldi	r22, 0x26	; 38
    1f9a:	90 e0       	ldi	r25, 0x00	; 0
    1f9c:	0e 94 9a 0d 	call	0x1b34	; 0x1b34 <_Z11draw_numberihh>
    1fa0:	e0 91 02 01 	lds	r30, 0x0102	; 0x800102 <current_choice>
    1fa4:	f0 e0       	ldi	r31, 0x00	; 0
    1fa6:	ed 5f       	subi	r30, 0xFD	; 253
    1fa8:	fe 4f       	sbci	r31, 0xFE	; 254
    1faa:	80 81       	ld	r24, Z
    1fac:	45 e2       	ldi	r20, 0x25	; 37
    1fae:	67 e4       	ldi	r22, 0x47	; 71
    1fb0:	90 e0       	ldi	r25, 0x00	; 0
    1fb2:	0e 94 9a 0d 	call	0x1b34	; 0x1b34 <_Z11draw_numberihh>
    1fb6:	86 e3       	ldi	r24, 0x36	; 54
    1fb8:	91 e0       	ldi	r25, 0x01	; 1
    1fba:	0e 94 6e 0c 	call	0x18dc	; 0x18dc <_ZN11Framebuffer4showEv>
    1fbe:	0f 91       	pop	r16
    1fc0:	ef 90       	pop	r14
    1fc2:	08 95       	ret

00001fc4 <_Z13draw_set_gatev>:
    1fc4:	ef 92       	push	r14
    1fc6:	0f 93       	push	r16
    1fc8:	86 e3       	ldi	r24, 0x36	; 54
    1fca:	91 e0       	ldi	r25, 0x01	; 1
    1fcc:	0e 94 5b 0c 	call	0x18b6	; 0x18b6 <_ZN11Framebuffer5clearEv>
    1fd0:	e0 91 3b 05 	lds	r30, 0x053B	; 0x80053b <current_sett_win>
    1fd4:	f0 e0       	ldi	r31, 0x00	; 0
    1fd6:	ee 0f       	add	r30, r30
    1fd8:	ff 1f       	adc	r31, r31
    1fda:	e4 5d       	subi	r30, 0xD4	; 212
    1fdc:	fe 4f       	sbci	r31, 0xFE	; 254
    1fde:	60 81       	ld	r22, Z
    1fe0:	71 81       	ldd	r23, Z+1	; 0x01
    1fe2:	e1 2c       	mov	r14, r1
    1fe4:	00 e0       	ldi	r16, 0x00	; 0
    1fe6:	20 e8       	ldi	r18, 0x80	; 128
    1fe8:	40 e4       	ldi	r20, 0x40	; 64
    1fea:	86 e3       	ldi	r24, 0x36	; 54
    1fec:	91 e0       	ldi	r25, 0x01	; 1
    1fee:	0e 94 e0 0b 	call	0x17c0	; 0x17c0 <_ZN11Framebuffer10drawBitmapEPKhhhhh>
    1ff2:	80 91 3f 05 	lds	r24, 0x053F	; 0x80053f <currentCell>
    1ff6:	4a e1       	ldi	r20, 0x1A	; 26
    1ff8:	62 e4       	ldi	r22, 0x42	; 66
    1ffa:	90 e0       	ldi	r25, 0x00	; 0
    1ffc:	0e 94 9a 0d 	call	0x1b34	; 0x1b34 <_Z11draw_numberihh>
    2000:	80 91 3f 05 	lds	r24, 0x053F	; 0x80053f <currentCell>
    2004:	90 e0       	ldi	r25, 0x00	; 0
    2006:	fc 01       	movw	r30, r24
    2008:	ee 0f       	add	r30, r30
    200a:	ff 1f       	adc	r31, r31
    200c:	ee 0f       	add	r30, r30
    200e:	ff 1f       	adc	r31, r31
    2010:	8e 0f       	add	r24, r30
    2012:	9f 1f       	adc	r25, r31
    2014:	fc 01       	movw	r30, r24
    2016:	ea 59       	subi	r30, 0x9A	; 154
    2018:	fa 4f       	sbci	r31, 0xFA	; 250
    201a:	84 81       	ldd	r24, Z+4	; 0x04
    201c:	49 e2       	ldi	r20, 0x29	; 41
    201e:	67 e3       	ldi	r22, 0x37	; 55
    2020:	90 e0       	ldi	r25, 0x00	; 0
    2022:	0e 94 9a 0d 	call	0x1b34	; 0x1b34 <_Z11draw_numberihh>
    2026:	86 e3       	ldi	r24, 0x36	; 54
    2028:	91 e0       	ldi	r25, 0x01	; 1
    202a:	0e 94 6e 0c 	call	0x18dc	; 0x18dc <_ZN11Framebuffer4showEv>
    202e:	0f 91       	pop	r16
    2030:	ef 90       	pop	r14
    2032:	08 95       	ret

00002034 <_Z12draw_set_seqv>:
    2034:	ef 92       	push	r14
    2036:	0f 93       	push	r16
    2038:	86 e3       	ldi	r24, 0x36	; 54
    203a:	91 e0       	ldi	r25, 0x01	; 1
    203c:	0e 94 5b 0c 	call	0x18b6	; 0x18b6 <_ZN11Framebuffer5clearEv>
    2040:	e0 91 3b 05 	lds	r30, 0x053B	; 0x80053b <current_sett_win>
    2044:	f0 e0       	ldi	r31, 0x00	; 0
    2046:	ee 0f       	add	r30, r30
    2048:	ff 1f       	adc	r31, r31
    204a:	e4 5d       	subi	r30, 0xD4	; 212
    204c:	fe 4f       	sbci	r31, 0xFE	; 254
    204e:	60 81       	ld	r22, Z
    2050:	71 81       	ldd	r23, Z+1	; 0x01
    2052:	e1 2c       	mov	r14, r1
    2054:	00 e0       	ldi	r16, 0x00	; 0
    2056:	20 e8       	ldi	r18, 0x80	; 128
    2058:	40 e4       	ldi	r20, 0x40	; 64
    205a:	86 e3       	ldi	r24, 0x36	; 54
    205c:	91 e0       	ldi	r25, 0x01	; 1
    205e:	0e 94 e0 0b 	call	0x17c0	; 0x17c0 <_ZN11Framebuffer10drawBitmapEPKhhhhh>
    2062:	49 e2       	ldi	r20, 0x29	; 41
    2064:	69 e5       	ldi	r22, 0x59	; 89
    2066:	80 e1       	ldi	r24, 0x10	; 16
    2068:	90 e0       	ldi	r25, 0x00	; 0
    206a:	0e 94 9a 0d 	call	0x1b34	; 0x1b34 <_Z11draw_numberihh>
    206e:	86 e3       	ldi	r24, 0x36	; 54
    2070:	91 e0       	ldi	r25, 0x01	; 1
    2072:	0e 94 6e 0c 	call	0x18dc	; 0x18dc <_ZN11Framebuffer4showEv>
    2076:	0f 91       	pop	r16
    2078:	ef 90       	pop	r14
    207a:	08 95       	ret

0000207c <_Z14draw_set_chordv>:
    207c:	ef 92       	push	r14
    207e:	0f 93       	push	r16
    2080:	86 e3       	ldi	r24, 0x36	; 54
    2082:	91 e0       	ldi	r25, 0x01	; 1
    2084:	0e 94 5b 0c 	call	0x18b6	; 0x18b6 <_ZN11Framebuffer5clearEv>
    2088:	e0 91 3b 05 	lds	r30, 0x053B	; 0x80053b <current_sett_win>
    208c:	f0 e0       	ldi	r31, 0x00	; 0
    208e:	ee 0f       	add	r30, r30
    2090:	ff 1f       	adc	r31, r31
    2092:	e4 5d       	subi	r30, 0xD4	; 212
    2094:	fe 4f       	sbci	r31, 0xFE	; 254
    2096:	60 81       	ld	r22, Z
    2098:	71 81       	ldd	r23, Z+1	; 0x01
    209a:	e1 2c       	mov	r14, r1
    209c:	00 e0       	ldi	r16, 0x00	; 0
    209e:	20 e8       	ldi	r18, 0x80	; 128
    20a0:	40 e4       	ldi	r20, 0x40	; 64
    20a2:	86 e3       	ldi	r24, 0x36	; 54
    20a4:	91 e0       	ldi	r25, 0x01	; 1
    20a6:	0e 94 e0 0b 	call	0x17c0	; 0x17c0 <_ZN11Framebuffer10drawBitmapEPKhhhhh>
    20aa:	86 e3       	ldi	r24, 0x36	; 54
    20ac:	91 e0       	ldi	r25, 0x01	; 1
    20ae:	0e 94 6e 0c 	call	0x18dc	; 0x18dc <_ZN11Framebuffer4showEv>
    20b2:	0f 91       	pop	r16
    20b4:	ef 90       	pop	r14
    20b6:	08 95       	ret

000020b8 <_Z21func_process_settmainv>:
    20b8:	80 91 3a 05 	lds	r24, 0x053A	; 0x80053a <settings_selector>
    20bc:	9f ef       	ldi	r25, 0xFF	; 255
    20be:	98 0f       	add	r25, r24
    20c0:	94 30       	cpi	r25, 0x04	; 4
    20c2:	10 f4       	brcc	.+4      	; 0x20c8 <_Z21func_process_settmainv+0x10>
    20c4:	80 93 3b 05 	sts	0x053B, r24	; 0x80053b <current_sett_win>
    20c8:	82 30       	cpi	r24, 0x02	; 2
    20ca:	61 f0       	breq	.+24     	; 0x20e4 <_Z21func_process_settmainv+0x2c>
    20cc:	18 f4       	brcc	.+6      	; 0x20d4 <_Z21func_process_settmainv+0x1c>
    20ce:	81 30       	cpi	r24, 0x01	; 1
    20d0:	31 f0       	breq	.+12     	; 0x20de <_Z21func_process_settmainv+0x26>
    20d2:	08 95       	ret
    20d4:	83 30       	cpi	r24, 0x03	; 3
    20d6:	49 f0       	breq	.+18     	; 0x20ea <_Z21func_process_settmainv+0x32>
    20d8:	84 30       	cpi	r24, 0x04	; 4
    20da:	51 f0       	breq	.+20     	; 0x20f0 <_Z21func_process_settmainv+0x38>
    20dc:	08 95       	ret
    20de:	0e 94 b2 0f 	call	0x1f64	; 0x1f64 <_Z13draw_set_timev>
    20e2:	08 95       	ret
    20e4:	0e 94 e2 0f 	call	0x1fc4	; 0x1fc4 <_Z13draw_set_gatev>
    20e8:	08 95       	ret
    20ea:	0e 94 1a 10 	call	0x2034	; 0x2034 <_Z12draw_set_seqv>
    20ee:	08 95       	ret
    20f0:	0e 94 3e 10 	call	0x207c	; 0x207c <_Z14draw_set_chordv>
    20f4:	08 95       	ret

000020f6 <_Z15revert_settingsv>:
    20f6:	10 92 3b 05 	sts	0x053B, r1	; 0x80053b <current_sett_win>
    20fa:	80 91 08 01 	lds	r24, 0x0108	; 0x800108 <bpm>
    20fe:	80 93 00 01 	sts	0x0100, r24	; 0x800100 <__data_start>
    2102:	80 91 01 01 	lds	r24, 0x0101	; 0x800101 <last_choice>
    2106:	80 93 02 01 	sts	0x0102, r24	; 0x800102 <current_choice>
    210a:	89 e0       	ldi	r24, 0x09	; 9
    210c:	80 93 0b 01 	sts	0x010B, r24	; 0x80010b <setcurrentCell>
    2110:	10 92 40 05 	sts	0x0540, r1	; 0x800540 <progression_new_curr_step>
    2114:	08 95       	ret

00002116 <_Z9initTimerv>:
    2116:	16 bc       	out	0x26, r1	; 38
    2118:	8f e7       	ldi	r24, 0x7F	; 127
    211a:	87 bd       	out	0x27, r24	; 39
    211c:	83 e0       	ldi	r24, 0x03	; 3
    211e:	80 93 6e 00 	sts	0x006E, r24	; 0x80006e <__DATA_REGION_ORIGIN__+0xe>
    2122:	84 b5       	in	r24, 0x24	; 36
    2124:	81 60       	ori	r24, 0x01	; 1
    2126:	84 bd       	out	0x24, r24	; 36
    2128:	85 b5       	in	r24, 0x25	; 37
    212a:	82 60       	ori	r24, 0x02	; 2
    212c:	85 bd       	out	0x25, r24	; 37
    212e:	78 94       	sei
    2130:	08 95       	ret

00002132 <__vector_14>:
    2132:	1f 92       	push	r1
    2134:	0f 92       	push	r0
    2136:	0f b6       	in	r0, 0x3f	; 63
    2138:	0f 92       	push	r0
    213a:	11 24       	eor	r1, r1
    213c:	0f 90       	pop	r0
    213e:	0f be       	out	0x3f, r0	; 63
    2140:	0f 90       	pop	r0
    2142:	1f 90       	pop	r1
    2144:	18 95       	reti

00002146 <_Z12button_stateh>:
    2146:	26 b1       	in	r18, 0x06	; 6
    2148:	30 e0       	ldi	r19, 0x00	; 0
    214a:	08 2e       	mov	r0, r24
    214c:	02 c0       	rjmp	.+4      	; 0x2152 <_Z12button_stateh+0xc>
    214e:	35 95       	asr	r19
    2150:	27 95       	ror	r18
    2152:	0a 94       	dec	r0
    2154:	e2 f7       	brpl	.-8      	; 0x214e <_Z12button_stateh+0x8>
    2156:	20 fd       	sbrc	r18, 0
    2158:	13 c0       	rjmp	.+38     	; 0x2180 <_Z12button_stateh+0x3a>
    215a:	ef e3       	ldi	r30, 0x3F	; 63
    215c:	fc e9       	ldi	r31, 0x9C	; 156
    215e:	31 97       	sbiw	r30, 0x01	; 1
    2160:	f1 f7       	brne	.-4      	; 0x215e <_Z12button_stateh+0x18>
    2162:	00 c0       	rjmp	.+0      	; 0x2164 <_Z12button_stateh+0x1e>
    2164:	00 00       	nop
    2166:	26 b1       	in	r18, 0x06	; 6
    2168:	30 e0       	ldi	r19, 0x00	; 0
    216a:	a9 01       	movw	r20, r18
    216c:	02 c0       	rjmp	.+4      	; 0x2172 <_Z12button_stateh+0x2c>
    216e:	55 95       	asr	r21
    2170:	47 95       	ror	r20
    2172:	8a 95       	dec	r24
    2174:	e2 f7       	brpl	.-8      	; 0x216e <_Z12button_stateh+0x28>
    2176:	ca 01       	movw	r24, r20
    2178:	51 e0       	ldi	r21, 0x01	; 1
    217a:	85 27       	eor	r24, r21
    217c:	81 70       	andi	r24, 0x01	; 1
    217e:	08 95       	ret
    2180:	80 e0       	ldi	r24, 0x00	; 0
    2182:	08 95       	ret

00002184 <_Z10readMatrixv>:
    2184:	5f 9a       	sbi	0x0b, 7	; 11
    2186:	8f e9       	ldi	r24, 0x9F	; 159
    2188:	9f e0       	ldi	r25, 0x0F	; 15
    218a:	01 97       	sbiw	r24, 0x01	; 1
    218c:	f1 f7       	brne	.-4      	; 0x218a <_Z10readMatrixv+0x6>
    218e:	00 c0       	rjmp	.+0      	; 0x2190 <_Z10readMatrixv+0xc>
    2190:	00 00       	nop
    2192:	89 b1       	in	r24, 0x09	; 9
    2194:	9b b1       	in	r25, 0x0b	; 11
    2196:	1b b8       	out	0x0b, r1	; 11
    2198:	5e 9a       	sbi	0x0b, 6	; 11
    219a:	ef e9       	ldi	r30, 0x9F	; 159
    219c:	ff e0       	ldi	r31, 0x0F	; 15
    219e:	31 97       	sbiw	r30, 0x01	; 1
    21a0:	f1 f7       	brne	.-4      	; 0x219e <_Z10readMatrixv+0x1a>
    21a2:	00 c0       	rjmp	.+0      	; 0x21a4 <_Z10readMatrixv+0x20>
    21a4:	00 00       	nop
    21a6:	99 b1       	in	r25, 0x09	; 9
    21a8:	2b b1       	in	r18, 0x0b	; 11
    21aa:	1b b8       	out	0x0b, r1	; 11
    21ac:	9c 73       	andi	r25, 0x3C	; 60
    21ae:	96 95       	lsr	r25
    21b0:	96 95       	lsr	r25
    21b2:	8c 73       	andi	r24, 0x3C	; 60
    21b4:	88 0f       	add	r24, r24
    21b6:	88 0f       	add	r24, r24
    21b8:	89 2b       	or	r24, r25
    21ba:	08 95       	ret

000021bc <_Z14flag_processerv>:
    21bc:	82 e0       	ldi	r24, 0x02	; 2
    21be:	0e 94 a3 10 	call	0x2146	; 0x2146 <_Z12button_stateh>
    21c2:	81 11       	cpse	r24, r1
    21c4:	05 c0       	rjmp	.+10     	; 0x21d0 <_Z14flag_processerv+0x14>
    21c6:	80 91 0a 01 	lds	r24, 0x010A	; 0x80010a <button_flag>
    21ca:	8e 7f       	andi	r24, 0xFE	; 254
    21cc:	80 93 0a 01 	sts	0x010A, r24	; 0x80010a <button_flag>
    21d0:	83 e0       	ldi	r24, 0x03	; 3
    21d2:	0e 94 a3 10 	call	0x2146	; 0x2146 <_Z12button_stateh>
    21d6:	81 11       	cpse	r24, r1
    21d8:	05 c0       	rjmp	.+10     	; 0x21e4 <_Z14flag_processerv+0x28>
    21da:	80 91 0a 01 	lds	r24, 0x010A	; 0x80010a <button_flag>
    21de:	8d 7f       	andi	r24, 0xFD	; 253
    21e0:	80 93 0a 01 	sts	0x010A, r24	; 0x80010a <button_flag>
    21e4:	0e 94 c2 10 	call	0x2184	; 0x2184 <_Z10readMatrixv>
    21e8:	81 11       	cpse	r24, r1
    21ea:	05 c0       	rjmp	.+10     	; 0x21f6 <_Z14flag_processerv+0x3a>
    21ec:	80 91 0a 01 	lds	r24, 0x010A	; 0x80010a <button_flag>
    21f0:	8b 7f       	andi	r24, 0xFB	; 251
    21f2:	80 93 0a 01 	sts	0x010A, r24	; 0x80010a <button_flag>
    21f6:	10 92 39 05 	sts	0x0539, r1	; 0x800539 <buttons>
    21fa:	08 95       	ret

000021fc <_Z10setNewTickii>:
    21fc:	8f 92       	push	r8
    21fe:	9f 92       	push	r9
    2200:	af 92       	push	r10
    2202:	bf 92       	push	r11
    2204:	cf 92       	push	r12
    2206:	df 92       	push	r13
    2208:	ef 92       	push	r14
    220a:	ff 92       	push	r15
    220c:	7c 01       	movw	r14, r24
    220e:	10 92 8e 05 	sts	0x058E, r1	; 0x80058e <tickCurrent>
    2212:	10 92 8f 05 	sts	0x058F, r1	; 0x80058f <tickCurrent+0x1>
    2216:	10 92 90 05 	sts	0x0590, r1	; 0x800590 <tickCurrent+0x2>
    221a:	10 92 91 05 	sts	0x0591, r1	; 0x800591 <tickCurrent+0x3>
    221e:	07 2e       	mov	r0, r23
    2220:	00 0c       	add	r0, r0
    2222:	88 0b       	sbc	r24, r24
    2224:	99 0b       	sbc	r25, r25
    2226:	0e 94 26 17 	call	0x2e4c	; 0x2e4c <__floatsisf>
    222a:	9b 01       	movw	r18, r22
    222c:	ac 01       	movw	r20, r24
    222e:	60 e0       	ldi	r22, 0x00	; 0
    2230:	70 e0       	ldi	r23, 0x00	; 0
    2232:	80 e8       	ldi	r24, 0x80	; 128
    2234:	9f e3       	ldi	r25, 0x3F	; 63
    2236:	0e 94 83 16 	call	0x2d06	; 0x2d06 <__divsf3>
    223a:	20 e0       	ldi	r18, 0x00	; 0
    223c:	30 e0       	ldi	r19, 0x00	; 0
    223e:	40 e8       	ldi	r20, 0x80	; 128
    2240:	50 e4       	ldi	r21, 0x40	; 64
    2242:	0e 94 b2 17 	call	0x2f64	; 0x2f64 <__mulsf3>
    2246:	4b 01       	movw	r8, r22
    2248:	5c 01       	movw	r10, r24
    224a:	97 01       	movw	r18, r14
    224c:	ff 0c       	add	r15, r15
    224e:	44 0b       	sbc	r20, r20
    2250:	55 0b       	sbc	r21, r21
    2252:	6e e1       	ldi	r22, 0x1E	; 30
    2254:	77 e9       	ldi	r23, 0x97	; 151
    2256:	83 e0       	ldi	r24, 0x03	; 3
    2258:	90 e0       	ldi	r25, 0x00	; 0
    225a:	0e 94 33 18 	call	0x3066	; 0x3066 <__divmodsi4>
    225e:	ca 01       	movw	r24, r20
    2260:	b9 01       	movw	r22, r18
    2262:	0e 94 26 17 	call	0x2e4c	; 0x2e4c <__floatsisf>
    2266:	9b 01       	movw	r18, r22
    2268:	ac 01       	movw	r20, r24
    226a:	c5 01       	movw	r24, r10
    226c:	b4 01       	movw	r22, r8
    226e:	0e 94 b2 17 	call	0x2f64	; 0x2f64 <__mulsf3>
    2272:	0e 94 f5 16 	call	0x2dea	; 0x2dea <__fixunssfsi>
    2276:	6b 01       	movw	r12, r22
    2278:	7c 01       	movw	r14, r24
    227a:	60 93 14 01 	sts	0x0114, r22	; 0x800114 <tickCount>
    227e:	70 93 15 01 	sts	0x0115, r23	; 0x800115 <tickCount+0x1>
    2282:	80 93 16 01 	sts	0x0116, r24	; 0x800116 <tickCount+0x2>
    2286:	90 93 17 01 	sts	0x0117, r25	; 0x800117 <tickCount+0x3>
    228a:	80 91 3f 05 	lds	r24, 0x053F	; 0x80053f <currentCell>
    228e:	90 e0       	ldi	r25, 0x00	; 0
    2290:	fc 01       	movw	r30, r24
    2292:	ee 0f       	add	r30, r30
    2294:	ff 1f       	adc	r31, r31
    2296:	ee 0f       	add	r30, r30
    2298:	ff 1f       	adc	r31, r31
    229a:	8e 0f       	add	r24, r30
    229c:	9f 1f       	adc	r25, r31
    229e:	fc 01       	movw	r30, r24
    22a0:	ea 59       	subi	r30, 0x9A	; 154
    22a2:	fa 4f       	sbci	r31, 0xFA	; 250
    22a4:	64 81       	ldd	r22, Z+4	; 0x04
    22a6:	70 e0       	ldi	r23, 0x00	; 0
    22a8:	80 e0       	ldi	r24, 0x00	; 0
    22aa:	90 e0       	ldi	r25, 0x00	; 0
    22ac:	0e 94 26 17 	call	0x2e4c	; 0x2e4c <__floatsisf>
    22b0:	4b 01       	movw	r8, r22
    22b2:	5c 01       	movw	r10, r24
    22b4:	c7 01       	movw	r24, r14
    22b6:	b6 01       	movw	r22, r12
    22b8:	0e 94 24 17 	call	0x2e48	; 0x2e48 <__floatunsisf>
    22bc:	20 e0       	ldi	r18, 0x00	; 0
    22be:	30 e0       	ldi	r19, 0x00	; 0
    22c0:	48 ec       	ldi	r20, 0xC8	; 200
    22c2:	52 e4       	ldi	r21, 0x42	; 66
    22c4:	0e 94 83 16 	call	0x2d06	; 0x2d06 <__divsf3>
    22c8:	9b 01       	movw	r18, r22
    22ca:	ac 01       	movw	r20, r24
    22cc:	c5 01       	movw	r24, r10
    22ce:	b4 01       	movw	r22, r8
    22d0:	0e 94 b2 17 	call	0x2f64	; 0x2f64 <__mulsf3>
    22d4:	0e 94 f5 16 	call	0x2dea	; 0x2dea <__fixunssfsi>
    22d8:	60 93 10 01 	sts	0x0110, r22	; 0x800110 <tickStop>
    22dc:	70 93 11 01 	sts	0x0111, r23	; 0x800111 <tickStop+0x1>
    22e0:	80 93 12 01 	sts	0x0112, r24	; 0x800112 <tickStop+0x2>
    22e4:	90 93 13 01 	sts	0x0113, r25	; 0x800113 <tickStop+0x3>
    22e8:	ff 90       	pop	r15
    22ea:	ef 90       	pop	r14
    22ec:	df 90       	pop	r13
    22ee:	cf 90       	pop	r12
    22f0:	bf 90       	pop	r11
    22f2:	af 90       	pop	r10
    22f4:	9f 90       	pop	r9
    22f6:	8f 90       	pop	r8
    22f8:	08 95       	ret

000022fa <_Z17func_process_timev>:
    22fa:	0e 94 07 0f 	call	0x1e0e	; 0x1e0e <_Z9draw_mainv>
    22fe:	80 91 00 01 	lds	r24, 0x0100	; 0x800100 <__data_start>
    2302:	80 93 08 01 	sts	0x0108, r24	; 0x800108 <bpm>
    2306:	90 91 02 01 	lds	r25, 0x0102	; 0x800102 <current_choice>
    230a:	e9 2f       	mov	r30, r25
    230c:	f0 e0       	ldi	r31, 0x00	; 0
    230e:	ed 5f       	subi	r30, 0xFD	; 253
    2310:	fe 4f       	sbci	r31, 0xFE	; 254
    2312:	60 81       	ld	r22, Z
    2314:	60 93 09 01 	sts	0x0109, r22	; 0x800109 <noteLengthDivision>
    2318:	90 93 01 01 	sts	0x0101, r25	; 0x800101 <last_choice>
    231c:	70 e0       	ldi	r23, 0x00	; 0
    231e:	90 e0       	ldi	r25, 0x00	; 0
    2320:	0e 94 fe 10 	call	0x21fc	; 0x21fc <_Z10setNewTickii>
    2324:	10 92 3c 05 	sts	0x053C, r1	; 0x80053c <settings_flag>
    2328:	10 92 3b 05 	sts	0x053B, r1	; 0x80053b <current_sett_win>
    232c:	08 95       	ret

0000232e <_Z14SPI_MasterInitv>:
    232e:	8f ef       	ldi	r24, 0xFF	; 255
    2330:	84 b9       	out	0x04, r24	; 4
    2332:	83 e5       	ldi	r24, 0x53	; 83
    2334:	8c bd       	out	0x2c, r24	; 44
    2336:	08 95       	ret

00002338 <_Z18SPI_MasterTransmitc>:
    2338:	8e bd       	out	0x2e, r24	; 46
    233a:	0d b4       	in	r0, 0x2d	; 45
    233c:	07 fe       	sbrs	r0, 7
    233e:	fd cf       	rjmp	.-6      	; 0x233a <_Z18SPI_MasterTransmitc+0x2>
    2340:	8e b5       	in	r24, 0x2e	; 46
    2342:	08 95       	ret

00002344 <_Z12sendToDiodesh>:
    2344:	40 98       	cbi	0x08, 0	; 8
    2346:	0e 94 9c 11 	call	0x2338	; 0x2338 <_Z18SPI_MasterTransmitc>
    234a:	40 9a       	sbi	0x08, 0	; 8
    234c:	08 95       	ret

0000234e <_Z17MCP4922_Sent_Dataiij>:

void MCP4922_Sent_Data(int CS, int aOrb, unsigned int h)//cs: for 1 = PINB1; for 2 = PINB2; aorb: dac1 = 0; dac2 = 1;
{
    234e:	1f 93       	push	r17
    2350:	cf 93       	push	r28
    2352:	df 93       	push	r29
    2354:	14 2f       	mov	r17, r20
	unsigned int   mask_inf = h>>8;
	mask_inf |=(1<<SHDN)|(1<<GA)|(aOrb<<A_B);
    2356:	25 2f       	mov	r18, r21
    2358:	30 e0       	ldi	r19, 0x00	; 0
    235a:	76 95       	lsr	r23
    235c:	76 2f       	mov	r23, r22
    235e:	66 27       	eor	r22, r22
    2360:	77 95       	ror	r23
    2362:	67 95       	ror	r22
    2364:	62 2b       	or	r22, r18
    2366:	73 2b       	or	r23, r19
	//PORTD = mask_inf;
	PORTB &=~(1<<CS);
    2368:	95 b1       	in	r25, 0x05	; 5
    236a:	c1 e0       	ldi	r28, 0x01	; 1
    236c:	d0 e0       	ldi	r29, 0x00	; 0
    236e:	02 c0       	rjmp	.+4      	; 0x2374 <_Z17MCP4922_Sent_Dataiij+0x26>
    2370:	cc 0f       	add	r28, r28
    2372:	dd 1f       	adc	r29, r29
    2374:	8a 95       	dec	r24
    2376:	e2 f7       	brpl	.-8      	; 0x2370 <_Z17MCP4922_Sent_Dataiij+0x22>
    2378:	8c 2f       	mov	r24, r28
    237a:	80 95       	com	r24
    237c:	98 23       	and	r25, r24
    237e:	95 b9       	out	0x05, r25	; 5
	SPI_MasterTransmit (mask_inf); //  
    2380:	86 2f       	mov	r24, r22
    2382:	80 63       	ori	r24, 0x30	; 48
    2384:	0e 94 9c 11 	call	0x2338	; 0x2338 <_Z18SPI_MasterTransmitc>
	SPI_MasterTransmit (h); //  
    2388:	81 2f       	mov	r24, r17
    238a:	0e 94 9c 11 	call	0x2338	; 0x2338 <_Z18SPI_MasterTransmitc>
	PORTB |=(1<<CS);
    238e:	85 b1       	in	r24, 0x05	; 5
    2390:	c8 2b       	or	r28, r24
    2392:	c5 b9       	out	0x05, r28	; 5
}
    2394:	df 91       	pop	r29
    2396:	cf 91       	pop	r28
    2398:	1f 91       	pop	r17
    239a:	08 95       	ret

0000239c <_Z15initProgressionv>:
void initProgression()
{
    239c:	e6 e6       	ldi	r30, 0x66	; 102
    239e:	f5 e0       	ldi	r31, 0x05	; 5
    23a0:	84 e2       	ldi	r24, 0x24	; 36
		//buff.gate = 15*(i+1);
		buff.note4 = 36+i*4;
		buff.note3 = 40+i*4;
		buff.note2 = 43+i*4;
		buff.note1 = 48+i*4;
		cells[i] = buff;
    23a2:	32 e3       	ldi	r19, 0x32	; 50
	buff.gate = 50;
	for (int i = 0; i < 8;i++)
	{
		//buff.gate = 15*(i+1);
		buff.note4 = 36+i*4;
		buff.note3 = 40+i*4;
    23a4:	94 e0       	ldi	r25, 0x04	; 4
    23a6:	98 0f       	add	r25, r24
		buff.note2 = 43+i*4;
		buff.note1 = 48+i*4;
		cells[i] = buff;
    23a8:	80 83       	st	Z, r24
    23aa:	91 83       	std	Z+1, r25	; 0x01
    23ac:	27 e0       	ldi	r18, 0x07	; 7
    23ae:	28 0f       	add	r18, r24
    23b0:	22 83       	std	Z+2, r18	; 0x02
    23b2:	84 5f       	subi	r24, 0xF4	; 244
    23b4:	83 83       	std	Z+3, r24	; 0x03
    23b6:	34 83       	std	Z+4, r19	; 0x04
    23b8:	35 96       	adiw	r30, 0x05	; 5
    23ba:	89 2f       	mov	r24, r25
	/*buff.note4 = 60;
	buff.note3 = 64;
	buff.note2 = 67;
	buff.note1 = 71;*/
	buff.gate = 50;
	for (int i = 0; i < 8;i++)
    23bc:	94 34       	cpi	r25, 0x44	; 68
    23be:	91 f7       	brne	.-28     	; 0x23a4 <_Z15initProgressionv+0x8>
		buff.note3 = 40+i*4;
		buff.note2 = 43+i*4;
		buff.note1 = 48+i*4;
		cells[i] = buff;
	}
	cellSet = buff;
    23c0:	e1 e6       	ldi	r30, 0x61	; 97
    23c2:	f5 e0       	ldi	r31, 0x05	; 5
    23c4:	80 e4       	ldi	r24, 0x40	; 64
    23c6:	80 83       	st	Z, r24
    23c8:	84 e4       	ldi	r24, 0x44	; 68
    23ca:	81 83       	std	Z+1, r24	; 0x01
    23cc:	87 e4       	ldi	r24, 0x47	; 71
    23ce:	82 83       	std	Z+2, r24	; 0x02
    23d0:	8c e4       	ldi	r24, 0x4C	; 76
    23d2:	83 83       	std	Z+3, r24	; 0x03
    23d4:	82 e3       	ldi	r24, 0x32	; 50
    23d6:	84 83       	std	Z+4, r24	; 0x04
    23d8:	a1 e5       	ldi	r26, 0x51	; 81
    23da:	b5 e0       	ldi	r27, 0x05	; 5
    23dc:	e1 e4       	ldi	r30, 0x41	; 65
    23de:	f5 e0       	ldi	r31, 0x05	; 5
	for (int i = 0; i < 16;i++)
    23e0:	20 e0       	ldi	r18, 0x00	; 0
    23e2:	30 e0       	ldi	r19, 0x00	; 0
	{
		progression[i] = i%8;
    23e4:	c9 01       	movw	r24, r18
    23e6:	87 70       	andi	r24, 0x07	; 7
    23e8:	90 78       	andi	r25, 0x80	; 128
    23ea:	99 23       	and	r25, r25
    23ec:	24 f4       	brge	.+8      	; 0x23f6 <_Z15initProgressionv+0x5a>
    23ee:	01 97       	sbiw	r24, 0x01	; 1
    23f0:	88 6f       	ori	r24, 0xF8	; 248
    23f2:	9f 6f       	ori	r25, 0xFF	; 255
    23f4:	01 96       	adiw	r24, 0x01	; 1
    23f6:	8d 93       	st	X+, r24
		progression_new[i] = progression[i];
    23f8:	81 93       	st	Z+, r24
		buff.note2 = 43+i*4;
		buff.note1 = 48+i*4;
		cells[i] = buff;
	}
	cellSet = buff;
	for (int i = 0; i < 16;i++)
    23fa:	2f 5f       	subi	r18, 0xFF	; 255
    23fc:	3f 4f       	sbci	r19, 0xFF	; 255
    23fe:	20 31       	cpi	r18, 0x10	; 16
    2400:	31 05       	cpc	r19, r1
    2402:	81 f7       	brne	.-32     	; 0x23e4 <_Z15initProgressionv+0x48>
	{
		progression[i] = i%8;
		progression_new[i] = progression[i];
	}
}
    2404:	08 95       	ret

00002406 <_Z12formVoltages9ChordCell>:
void formVoltages(ChordCell cell)
{
    2406:	cf 93       	push	r28
    2408:	df 93       	push	r29
    240a:	00 d0       	rcall	.+0      	; 0x240c <_Z12formVoltages9ChordCell+0x6>
    240c:	00 d0       	rcall	.+0      	; 0x240e <_Z12formVoltages9ChordCell+0x8>
    240e:	1f 92       	push	r1
    2410:	cd b7       	in	r28, 0x3d	; 61
    2412:	de b7       	in	r29, 0x3e	; 62
    2414:	5a 83       	std	Y+2, r21	; 0x02
    2416:	6b 83       	std	Y+3, r22	; 0x03
    2418:	7c 83       	std	Y+4, r23	; 0x04
	MCP4922_Sent_Data(1,0, MCP4922_Convert_Data (midiToVoltOct(cell.note4),Vref));
    241a:	64 2f       	mov	r22, r20
    241c:	70 e0       	ldi	r23, 0x00	; 0
    241e:	80 e0       	ldi	r24, 0x00	; 0
    2420:	90 e0       	ldi	r25, 0x00	; 0
    2422:	0e 94 24 17 	call	0x2e48	; 0x2e48 <__floatunsisf>
    2426:	20 e0       	ldi	r18, 0x00	; 0
    2428:	30 e0       	ldi	r19, 0x00	; 0
    242a:	40 ec       	ldi	r20, 0xC0	; 192
    242c:	51 e4       	ldi	r21, 0x41	; 65
    242e:	0e 94 16 16 	call	0x2c2c	; 0x2c2c <__subsf3>
    2432:	2b ea       	ldi	r18, 0xAB	; 171
    2434:	3a ea       	ldi	r19, 0xAA	; 170
    2436:	4a ea       	ldi	r20, 0xAA	; 170
    2438:	5d e3       	ldi	r21, 0x3D	; 61
    243a:	0e 94 b2 17 	call	0x2f64	; 0x2f64 <__mulsf3>
    243e:	20 91 0c 01 	lds	r18, 0x010C	; 0x80010c <Vref>
    2442:	30 91 0d 01 	lds	r19, 0x010D	; 0x80010d <Vref+0x1>
    2446:	40 91 0e 01 	lds	r20, 0x010E	; 0x80010e <Vref+0x2>
    244a:	50 91 0f 01 	lds	r21, 0x010F	; 0x80010f <Vref+0x3>
    244e:	0e 94 83 16 	call	0x2d06	; 0x2d06 <__divsf3>
    2452:	20 e0       	ldi	r18, 0x00	; 0
    2454:	30 e0       	ldi	r19, 0x00	; 0
    2456:	40 e8       	ldi	r20, 0x80	; 128
    2458:	55 e4       	ldi	r21, 0x45	; 69
    245a:	0e 94 b2 17 	call	0x2f64	; 0x2f64 <__mulsf3>
    245e:	0e 94 f5 16 	call	0x2dea	; 0x2dea <__fixunssfsi>
    2462:	ab 01       	movw	r20, r22
    2464:	60 e0       	ldi	r22, 0x00	; 0
    2466:	70 e0       	ldi	r23, 0x00	; 0
    2468:	81 e0       	ldi	r24, 0x01	; 1
    246a:	90 e0       	ldi	r25, 0x00	; 0
    246c:	0e 94 a7 11 	call	0x234e	; 0x234e <_Z17MCP4922_Sent_Dataiij>
	MCP4922_Sent_Data(1,1, MCP4922_Convert_Data (midiToVoltOct(cell.note3),Vref));
    2470:	6a 81       	ldd	r22, Y+2	; 0x02
    2472:	70 e0       	ldi	r23, 0x00	; 0
    2474:	80 e0       	ldi	r24, 0x00	; 0
    2476:	90 e0       	ldi	r25, 0x00	; 0
    2478:	0e 94 24 17 	call	0x2e48	; 0x2e48 <__floatunsisf>
    247c:	20 e0       	ldi	r18, 0x00	; 0
    247e:	30 e0       	ldi	r19, 0x00	; 0
    2480:	40 ec       	ldi	r20, 0xC0	; 192
    2482:	51 e4       	ldi	r21, 0x41	; 65
    2484:	0e 94 16 16 	call	0x2c2c	; 0x2c2c <__subsf3>
    2488:	2b ea       	ldi	r18, 0xAB	; 171
    248a:	3a ea       	ldi	r19, 0xAA	; 170
    248c:	4a ea       	ldi	r20, 0xAA	; 170
    248e:	5d e3       	ldi	r21, 0x3D	; 61
    2490:	0e 94 b2 17 	call	0x2f64	; 0x2f64 <__mulsf3>
    2494:	20 91 0c 01 	lds	r18, 0x010C	; 0x80010c <Vref>
    2498:	30 91 0d 01 	lds	r19, 0x010D	; 0x80010d <Vref+0x1>
    249c:	40 91 0e 01 	lds	r20, 0x010E	; 0x80010e <Vref+0x2>
    24a0:	50 91 0f 01 	lds	r21, 0x010F	; 0x80010f <Vref+0x3>
    24a4:	0e 94 83 16 	call	0x2d06	; 0x2d06 <__divsf3>
    24a8:	20 e0       	ldi	r18, 0x00	; 0
    24aa:	30 e0       	ldi	r19, 0x00	; 0
    24ac:	40 e8       	ldi	r20, 0x80	; 128
    24ae:	55 e4       	ldi	r21, 0x45	; 69
    24b0:	0e 94 b2 17 	call	0x2f64	; 0x2f64 <__mulsf3>
    24b4:	0e 94 f5 16 	call	0x2dea	; 0x2dea <__fixunssfsi>
    24b8:	ab 01       	movw	r20, r22
    24ba:	61 e0       	ldi	r22, 0x01	; 1
    24bc:	70 e0       	ldi	r23, 0x00	; 0
    24be:	81 e0       	ldi	r24, 0x01	; 1
    24c0:	90 e0       	ldi	r25, 0x00	; 0
    24c2:	0e 94 a7 11 	call	0x234e	; 0x234e <_Z17MCP4922_Sent_Dataiij>
	MCP4922_Sent_Data(2,0, MCP4922_Convert_Data (midiToVoltOct(cell.note2),Vref));
    24c6:	6b 81       	ldd	r22, Y+3	; 0x03
    24c8:	70 e0       	ldi	r23, 0x00	; 0
    24ca:	80 e0       	ldi	r24, 0x00	; 0
    24cc:	90 e0       	ldi	r25, 0x00	; 0
    24ce:	0e 94 24 17 	call	0x2e48	; 0x2e48 <__floatunsisf>
    24d2:	20 e0       	ldi	r18, 0x00	; 0
    24d4:	30 e0       	ldi	r19, 0x00	; 0
    24d6:	40 ec       	ldi	r20, 0xC0	; 192
    24d8:	51 e4       	ldi	r21, 0x41	; 65
    24da:	0e 94 16 16 	call	0x2c2c	; 0x2c2c <__subsf3>
    24de:	2b ea       	ldi	r18, 0xAB	; 171
    24e0:	3a ea       	ldi	r19, 0xAA	; 170
    24e2:	4a ea       	ldi	r20, 0xAA	; 170
    24e4:	5d e3       	ldi	r21, 0x3D	; 61
    24e6:	0e 94 b2 17 	call	0x2f64	; 0x2f64 <__mulsf3>
    24ea:	20 91 0c 01 	lds	r18, 0x010C	; 0x80010c <Vref>
    24ee:	30 91 0d 01 	lds	r19, 0x010D	; 0x80010d <Vref+0x1>
    24f2:	40 91 0e 01 	lds	r20, 0x010E	; 0x80010e <Vref+0x2>
    24f6:	50 91 0f 01 	lds	r21, 0x010F	; 0x80010f <Vref+0x3>
    24fa:	0e 94 83 16 	call	0x2d06	; 0x2d06 <__divsf3>
    24fe:	20 e0       	ldi	r18, 0x00	; 0
    2500:	30 e0       	ldi	r19, 0x00	; 0
    2502:	40 e8       	ldi	r20, 0x80	; 128
    2504:	55 e4       	ldi	r21, 0x45	; 69
    2506:	0e 94 b2 17 	call	0x2f64	; 0x2f64 <__mulsf3>
    250a:	0e 94 f5 16 	call	0x2dea	; 0x2dea <__fixunssfsi>
    250e:	ab 01       	movw	r20, r22
    2510:	60 e0       	ldi	r22, 0x00	; 0
    2512:	70 e0       	ldi	r23, 0x00	; 0
    2514:	82 e0       	ldi	r24, 0x02	; 2
    2516:	90 e0       	ldi	r25, 0x00	; 0
    2518:	0e 94 a7 11 	call	0x234e	; 0x234e <_Z17MCP4922_Sent_Dataiij>
	MCP4922_Sent_Data(2,1, MCP4922_Convert_Data (midiToVoltOct(cell.note1),Vref));
    251c:	6c 81       	ldd	r22, Y+4	; 0x04
    251e:	70 e0       	ldi	r23, 0x00	; 0
    2520:	80 e0       	ldi	r24, 0x00	; 0
    2522:	90 e0       	ldi	r25, 0x00	; 0
    2524:	0e 94 24 17 	call	0x2e48	; 0x2e48 <__floatunsisf>
    2528:	20 e0       	ldi	r18, 0x00	; 0
    252a:	30 e0       	ldi	r19, 0x00	; 0
    252c:	40 ec       	ldi	r20, 0xC0	; 192
    252e:	51 e4       	ldi	r21, 0x41	; 65
    2530:	0e 94 16 16 	call	0x2c2c	; 0x2c2c <__subsf3>
    2534:	2b ea       	ldi	r18, 0xAB	; 171
    2536:	3a ea       	ldi	r19, 0xAA	; 170
    2538:	4a ea       	ldi	r20, 0xAA	; 170
    253a:	5d e3       	ldi	r21, 0x3D	; 61
    253c:	0e 94 b2 17 	call	0x2f64	; 0x2f64 <__mulsf3>
    2540:	20 91 0c 01 	lds	r18, 0x010C	; 0x80010c <Vref>
    2544:	30 91 0d 01 	lds	r19, 0x010D	; 0x80010d <Vref+0x1>
    2548:	40 91 0e 01 	lds	r20, 0x010E	; 0x80010e <Vref+0x2>
    254c:	50 91 0f 01 	lds	r21, 0x010F	; 0x80010f <Vref+0x3>
    2550:	0e 94 83 16 	call	0x2d06	; 0x2d06 <__divsf3>
    2554:	20 e0       	ldi	r18, 0x00	; 0
    2556:	30 e0       	ldi	r19, 0x00	; 0
    2558:	40 e8       	ldi	r20, 0x80	; 128
    255a:	55 e4       	ldi	r21, 0x45	; 69
    255c:	0e 94 b2 17 	call	0x2f64	; 0x2f64 <__mulsf3>
    2560:	0e 94 f5 16 	call	0x2dea	; 0x2dea <__fixunssfsi>
    2564:	ab 01       	movw	r20, r22
    2566:	61 e0       	ldi	r22, 0x01	; 1
    2568:	70 e0       	ldi	r23, 0x00	; 0
    256a:	82 e0       	ldi	r24, 0x02	; 2
    256c:	90 e0       	ldi	r25, 0x00	; 0
    256e:	0e 94 a7 11 	call	0x234e	; 0x234e <_Z17MCP4922_Sent_Dataiij>
}
    2572:	0f 90       	pop	r0
    2574:	0f 90       	pop	r0
    2576:	0f 90       	pop	r0
    2578:	0f 90       	pop	r0
    257a:	0f 90       	pop	r0
    257c:	df 91       	pop	r29
    257e:	cf 91       	pop	r28
    2580:	08 95       	ret

00002582 <_Z19matrix_process_mainh>:
		break;
		default: bar();
	}
*/
void matrix_process_main(uint8_t i)
{
    2582:	cf 93       	push	r28
    2584:	c8 2f       	mov	r28, r24
	sendToDiodes((1<<i));
    2586:	81 e0       	ldi	r24, 0x01	; 1
    2588:	0c 2e       	mov	r0, r28
    258a:	01 c0       	rjmp	.+2      	; 0x258e <_Z19matrix_process_mainh+0xc>
    258c:	88 0f       	add	r24, r24
    258e:	0a 94       	dec	r0
    2590:	ea f7       	brpl	.-6      	; 0x258c <_Z19matrix_process_mainh+0xa>
    2592:	0e 94 a2 11 	call	0x2344	; 0x2344 <_Z12sendToDiodesh>
	currentCell = i;
    2596:	c0 93 3f 05 	sts	0x053F, r28	; 0x80053f <currentCell>
	draw_chord(currentCell);
    259a:	8c 2f       	mov	r24, r28
    259c:	0e 94 d6 0e 	call	0x1dac	; 0x1dac <_Z10draw_chordh>
	PORTB|=(1<<0);
    25a0:	28 9a       	sbi	0x05, 0	; 5
	formVoltages(cells[currentCell]);
    25a2:	e0 91 3f 05 	lds	r30, 0x053F	; 0x80053f <currentCell>
    25a6:	f0 e0       	ldi	r31, 0x00	; 0
    25a8:	cf 01       	movw	r24, r30
    25aa:	88 0f       	add	r24, r24
    25ac:	99 1f       	adc	r25, r25
    25ae:	88 0f       	add	r24, r24
    25b0:	99 1f       	adc	r25, r25
    25b2:	e8 0f       	add	r30, r24
    25b4:	f9 1f       	adc	r31, r25
    25b6:	ea 59       	subi	r30, 0x9A	; 154
    25b8:	fa 4f       	sbci	r31, 0xFA	; 250
    25ba:	40 81       	ld	r20, Z
    25bc:	51 81       	ldd	r21, Z+1	; 0x01
    25be:	62 81       	ldd	r22, Z+2	; 0x02
    25c0:	73 81       	ldd	r23, Z+3	; 0x03
    25c2:	84 81       	ldd	r24, Z+4	; 0x04
    25c4:	0e 94 03 12 	call	0x2406	; 0x2406 <_Z12formVoltages9ChordCell>
}
    25c8:	cf 91       	pop	r28
    25ca:	08 95       	ret

000025cc <__vector_16>:
	TCCR0A|=(1<<WGM00)|(0<<WGM01)|(0<<COM0A1)|(0<<COM0A0);
	TCCR0B|=(0<<CS00)|(1<<CS01);
	sei();
}
ISR(TIMER0_OVF_vect)
{
    25cc:	1f 92       	push	r1
    25ce:	0f 92       	push	r0
    25d0:	0f b6       	in	r0, 0x3f	; 63
    25d2:	0f 92       	push	r0
    25d4:	11 24       	eor	r1, r1
    25d6:	cf 92       	push	r12
    25d8:	df 92       	push	r13
    25da:	ef 92       	push	r14
    25dc:	ff 92       	push	r15
    25de:	0f 93       	push	r16
    25e0:	1f 93       	push	r17
    25e2:	2f 93       	push	r18
    25e4:	3f 93       	push	r19
    25e6:	4f 93       	push	r20
    25e8:	5f 93       	push	r21
    25ea:	6f 93       	push	r22
    25ec:	7f 93       	push	r23
    25ee:	8f 93       	push	r24
    25f0:	9f 93       	push	r25
    25f2:	af 93       	push	r26
    25f4:	bf 93       	push	r27
    25f6:	cf 93       	push	r28
    25f8:	ef 93       	push	r30
    25fa:	ff 93       	push	r31
	//putt if for start stop button
	if (isPlaying&&!settings_flag)
    25fc:	80 91 38 05 	lds	r24, 0x0538	; 0x800538 <isPlaying>
    2600:	88 23       	and	r24, r24
    2602:	09 f4       	brne	.+2      	; 0x2606 <__vector_16+0x3a>
    2604:	a7 c0       	rjmp	.+334    	; 0x2754 <__vector_16+0x188>
    2606:	80 91 3c 05 	lds	r24, 0x053C	; 0x80053c <settings_flag>
    260a:	81 11       	cpse	r24, r1
    260c:	a3 c0       	rjmp	.+326    	; 0x2754 <__vector_16+0x188>
	{
		tickCurrent++;
    260e:	80 91 8e 05 	lds	r24, 0x058E	; 0x80058e <tickCurrent>
    2612:	90 91 8f 05 	lds	r25, 0x058F	; 0x80058f <tickCurrent+0x1>
    2616:	a0 91 90 05 	lds	r26, 0x0590	; 0x800590 <tickCurrent+0x2>
    261a:	b0 91 91 05 	lds	r27, 0x0591	; 0x800591 <tickCurrent+0x3>
    261e:	01 96       	adiw	r24, 0x01	; 1
    2620:	a1 1d       	adc	r26, r1
    2622:	b1 1d       	adc	r27, r1
    2624:	80 93 8e 05 	sts	0x058E, r24	; 0x80058e <tickCurrent>
    2628:	90 93 8f 05 	sts	0x058F, r25	; 0x80058f <tickCurrent+0x1>
    262c:	a0 93 90 05 	sts	0x0590, r26	; 0x800590 <tickCurrent+0x2>
    2630:	b0 93 91 05 	sts	0x0591, r27	; 0x800591 <tickCurrent+0x3>
		if (tickCurrent == tickStop)
    2634:	40 91 10 01 	lds	r20, 0x0110	; 0x800110 <tickStop>
    2638:	50 91 11 01 	lds	r21, 0x0111	; 0x800111 <tickStop+0x1>
    263c:	60 91 12 01 	lds	r22, 0x0112	; 0x800112 <tickStop+0x2>
    2640:	70 91 13 01 	lds	r23, 0x0113	; 0x800113 <tickStop+0x3>
    2644:	84 17       	cp	r24, r20
    2646:	95 07       	cpc	r25, r21
    2648:	a6 07       	cpc	r26, r22
    264a:	b7 07       	cpc	r27, r23
    264c:	09 f4       	brne	.+2      	; 0x2650 <__vector_16+0x84>
		{
			PORTB&=~(1<<0);
    264e:	28 98       	cbi	0x05, 0	; 5
		}
		if (tickCurrent==tickCount)
    2650:	60 91 8e 05 	lds	r22, 0x058E	; 0x80058e <tickCurrent>
    2654:	70 91 8f 05 	lds	r23, 0x058F	; 0x80058f <tickCurrent+0x1>
    2658:	80 91 90 05 	lds	r24, 0x0590	; 0x800590 <tickCurrent+0x2>
    265c:	90 91 91 05 	lds	r25, 0x0591	; 0x800591 <tickCurrent+0x3>
    2660:	00 91 14 01 	lds	r16, 0x0114	; 0x800114 <tickCount>
    2664:	10 91 15 01 	lds	r17, 0x0115	; 0x800115 <tickCount+0x1>
    2668:	20 91 16 01 	lds	r18, 0x0116	; 0x800116 <tickCount+0x2>
    266c:	30 91 17 01 	lds	r19, 0x0117	; 0x800117 <tickCount+0x3>
    2670:	60 17       	cp	r22, r16
    2672:	71 07       	cpc	r23, r17
    2674:	82 07       	cpc	r24, r18
    2676:	93 07       	cpc	r25, r19
    2678:	09 f0       	breq	.+2      	; 0x267c <__vector_16+0xb0>
    267a:	6c c0       	rjmp	.+216    	; 0x2754 <__vector_16+0x188>
		{
			
			//managing ticks
			tickCurrent = 0;
    267c:	10 92 8e 05 	sts	0x058E, r1	; 0x80058e <tickCurrent>
    2680:	10 92 8f 05 	sts	0x058F, r1	; 0x80058f <tickCurrent+0x1>
    2684:	10 92 90 05 	sts	0x0590, r1	; 0x800590 <tickCurrent+0x2>
    2688:	10 92 91 05 	sts	0x0591, r1	; 0x800591 <tickCurrent+0x3>
			currentCellPos++;
    268c:	20 91 3d 05 	lds	r18, 0x053D	; 0x80053d <currentCellPos>
    2690:	2f 5f       	subi	r18, 0xFF	; 255
			if(currentCellPos==16){
    2692:	20 31       	cpi	r18, 0x10	; 16
    2694:	19 f0       	breq	.+6      	; 0x269c <__vector_16+0xd0>
		if (tickCurrent==tickCount)
		{
			
			//managing ticks
			tickCurrent = 0;
			currentCellPos++;
    2696:	20 93 3d 05 	sts	0x053D, r18	; 0x80053d <currentCellPos>
    269a:	02 c0       	rjmp	.+4      	; 0x26a0 <__vector_16+0xd4>
			if(currentCellPos==16){
				currentCellPos = 0;
    269c:	10 92 3d 05 	sts	0x053D, r1	; 0x80053d <currentCellPos>
			}
			//applying step
			progression_currentCell = progression[currentCellPos];
    26a0:	e0 91 3d 05 	lds	r30, 0x053D	; 0x80053d <currentCellPos>
    26a4:	f0 e0       	ldi	r31, 0x00	; 0
    26a6:	ef 5a       	subi	r30, 0xAF	; 175
    26a8:	fa 4f       	sbci	r31, 0xFA	; 250
    26aa:	c0 81       	ld	r28, Z
    26ac:	c0 93 3e 05 	sts	0x053E, r28	; 0x80053e <progression_currentCell>
			tickStop = (tickCount/100.0)*cells[progression_currentCell].gate;
    26b0:	0e 94 24 17 	call	0x2e48	; 0x2e48 <__floatunsisf>
    26b4:	20 e0       	ldi	r18, 0x00	; 0
    26b6:	30 e0       	ldi	r19, 0x00	; 0
    26b8:	48 ec       	ldi	r20, 0xC8	; 200
    26ba:	52 e4       	ldi	r21, 0x42	; 66
    26bc:	0e 94 83 16 	call	0x2d06	; 0x2d06 <__divsf3>
    26c0:	6b 01       	movw	r12, r22
    26c2:	7c 01       	movw	r14, r24
    26c4:	8c 2f       	mov	r24, r28
    26c6:	90 e0       	ldi	r25, 0x00	; 0
    26c8:	fc 01       	movw	r30, r24
    26ca:	ee 0f       	add	r30, r30
    26cc:	ff 1f       	adc	r31, r31
    26ce:	ee 0f       	add	r30, r30
    26d0:	ff 1f       	adc	r31, r31
    26d2:	8e 0f       	add	r24, r30
    26d4:	9f 1f       	adc	r25, r31
    26d6:	fc 01       	movw	r30, r24
    26d8:	ea 59       	subi	r30, 0x9A	; 154
    26da:	fa 4f       	sbci	r31, 0xFA	; 250
    26dc:	64 81       	ldd	r22, Z+4	; 0x04
    26de:	70 e0       	ldi	r23, 0x00	; 0
    26e0:	80 e0       	ldi	r24, 0x00	; 0
    26e2:	90 e0       	ldi	r25, 0x00	; 0
    26e4:	0e 94 26 17 	call	0x2e4c	; 0x2e4c <__floatsisf>
    26e8:	9b 01       	movw	r18, r22
    26ea:	ac 01       	movw	r20, r24
    26ec:	c7 01       	movw	r24, r14
    26ee:	b6 01       	movw	r22, r12
    26f0:	0e 94 b2 17 	call	0x2f64	; 0x2f64 <__mulsf3>
    26f4:	0e 94 f5 16 	call	0x2dea	; 0x2dea <__fixunssfsi>
    26f8:	60 93 10 01 	sts	0x0110, r22	; 0x800110 <tickStop>
    26fc:	70 93 11 01 	sts	0x0111, r23	; 0x800111 <tickStop+0x1>
    2700:	80 93 12 01 	sts	0x0112, r24	; 0x800112 <tickStop+0x2>
    2704:	90 93 13 01 	sts	0x0113, r25	; 0x800113 <tickStop+0x3>
			if(buttons==0x00)
    2708:	80 91 39 05 	lds	r24, 0x0539	; 0x800539 <buttons>
    270c:	81 11       	cpse	r24, r1
    270e:	22 c0       	rjmp	.+68     	; 0x2754 <__vector_16+0x188>
			{
				PORTB|=(1<<0);//to stop gate from not happenning while button si pressed
    2710:	28 9a       	sbi	0x05, 0	; 5
				draw_chord(progression_currentCell);
    2712:	80 91 3e 05 	lds	r24, 0x053E	; 0x80053e <progression_currentCell>
    2716:	0e 94 d6 0e 	call	0x1dac	; 0x1dac <_Z10draw_chordh>
				formVoltages(cells[progression_currentCell]);
    271a:	80 91 3e 05 	lds	r24, 0x053E	; 0x80053e <progression_currentCell>
    271e:	90 e0       	ldi	r25, 0x00	; 0
    2720:	fc 01       	movw	r30, r24
    2722:	ee 0f       	add	r30, r30
    2724:	ff 1f       	adc	r31, r31
    2726:	ee 0f       	add	r30, r30
    2728:	ff 1f       	adc	r31, r31
    272a:	e8 0f       	add	r30, r24
    272c:	f9 1f       	adc	r31, r25
    272e:	ea 59       	subi	r30, 0x9A	; 154
    2730:	fa 4f       	sbci	r31, 0xFA	; 250
    2732:	40 81       	ld	r20, Z
    2734:	51 81       	ldd	r21, Z+1	; 0x01
    2736:	62 81       	ldd	r22, Z+2	; 0x02
    2738:	73 81       	ldd	r23, Z+3	; 0x03
    273a:	84 81       	ldd	r24, Z+4	; 0x04
    273c:	0e 94 03 12 	call	0x2406	; 0x2406 <_Z12formVoltages9ChordCell>
				sendToDiodes((1<<(currentCellPos%8)));
    2740:	90 91 3d 05 	lds	r25, 0x053D	; 0x80053d <currentCellPos>
    2744:	97 70       	andi	r25, 0x07	; 7
    2746:	81 e0       	ldi	r24, 0x01	; 1
    2748:	01 c0       	rjmp	.+2      	; 0x274c <__vector_16+0x180>
    274a:	88 0f       	add	r24, r24
    274c:	9a 95       	dec	r25
    274e:	ea f7       	brpl	.-6      	; 0x274a <__vector_16+0x17e>
    2750:	0e 94 a2 11 	call	0x2344	; 0x2344 <_Z12sendToDiodesh>
			}
		}
	}
}
    2754:	ff 91       	pop	r31
    2756:	ef 91       	pop	r30
    2758:	cf 91       	pop	r28
    275a:	bf 91       	pop	r27
    275c:	af 91       	pop	r26
    275e:	9f 91       	pop	r25
    2760:	8f 91       	pop	r24
    2762:	7f 91       	pop	r23
    2764:	6f 91       	pop	r22
    2766:	5f 91       	pop	r21
    2768:	4f 91       	pop	r20
    276a:	3f 91       	pop	r19
    276c:	2f 91       	pop	r18
    276e:	1f 91       	pop	r17
    2770:	0f 91       	pop	r16
    2772:	ff 90       	pop	r15
    2774:	ef 90       	pop	r14
    2776:	df 90       	pop	r13
    2778:	cf 90       	pop	r12
    277a:	0f 90       	pop	r0
    277c:	0f be       	out	0x3f, r0	; 63
    277e:	0f 90       	pop	r0
    2780:	1f 90       	pop	r1
    2782:	18 95       	reti

00002784 <_Z11copy_arraysv>:
	MCP4922_Sent_Data(1,1, MCP4922_Convert_Data (midiToVoltOct(cell.note3),Vref));
	MCP4922_Sent_Data(2,0, MCP4922_Convert_Data (midiToVoltOct(cell.note2),Vref));
	MCP4922_Sent_Data(2,1, MCP4922_Convert_Data (midiToVoltOct(cell.note1),Vref));
}
void copy_arrays()
{
    2784:	e1 e4       	ldi	r30, 0x41	; 65
    2786:	f5 e0       	ldi	r31, 0x05	; 5
    2788:	a1 e5       	ldi	r26, 0x51	; 81
    278a:	b5 e0       	ldi	r27, 0x05	; 5
    278c:	21 e5       	ldi	r18, 0x51	; 81
    278e:	35 e0       	ldi	r19, 0x05	; 5
	for (int i = 0; i<16;i++)
	{
		progression[i] = progression_new[i];
    2790:	81 91       	ld	r24, Z+
    2792:	8d 93       	st	X+, r24
	MCP4922_Sent_Data(2,0, MCP4922_Convert_Data (midiToVoltOct(cell.note2),Vref));
	MCP4922_Sent_Data(2,1, MCP4922_Convert_Data (midiToVoltOct(cell.note1),Vref));
}
void copy_arrays()
{
	for (int i = 0; i<16;i++)
    2794:	e2 17       	cp	r30, r18
    2796:	f3 07       	cpc	r31, r19
    2798:	d9 f7       	brne	.-10     	; 0x2790 <_Z11copy_arraysv+0xc>
	{
		progression[i] = progression_new[i];
	}
    279a:	08 95       	ret

0000279c <_Z16func_process_seqv>:
		cells[currentCell] = cellSet;
	}
}
void func_process_seq()
{
	if(progression_new_curr_step>16)
    279c:	80 91 40 05 	lds	r24, 0x0540	; 0x800540 <progression_new_curr_step>
    27a0:	81 31       	cpi	r24, 0x11	; 17
    27a2:	50 f0       	brcs	.+20     	; 0x27b8 <_Z16func_process_seqv+0x1c>
	{
		copy_arrays();
    27a4:	0e 94 c2 13 	call	0x2784	; 0x2784 <_Z11copy_arraysv>
		//progression = progression_new;
		progression_new_curr_step = 0;
    27a8:	10 92 40 05 	sts	0x0540, r1	; 0x800540 <progression_new_curr_step>
		draw_main();
    27ac:	0e 94 07 0f 	call	0x1e0e	; 0x1e0e <_Z9draw_mainv>
		settings_flag = 0;
    27b0:	10 92 3c 05 	sts	0x053C, r1	; 0x80053c <settings_flag>
		current_sett_win = 0;
    27b4:	10 92 3b 05 	sts	0x053B, r1	; 0x80053b <current_sett_win>
    27b8:	08 95       	ret

000027ba <_Z18matrix_process_seqh>:
	}
	fb.show();
}
void matrix_process_seq(uint8_t i)
{
	currentCell = i;
    27ba:	80 93 3f 05 	sts	0x053F, r24	; 0x80053f <currentCell>
	progression_new_curr_step++;
    27be:	90 91 40 05 	lds	r25, 0x0540	; 0x800540 <progression_new_curr_step>
    27c2:	9f 5f       	subi	r25, 0xFF	; 255
    27c4:	90 93 40 05 	sts	0x0540, r25	; 0x800540 <progression_new_curr_step>
	progression_new[progression_new_curr_step] = currentCell;
    27c8:	e9 2f       	mov	r30, r25
    27ca:	f0 e0       	ldi	r31, 0x00	; 0
    27cc:	ef 5b       	subi	r30, 0xBF	; 191
    27ce:	fa 4f       	sbci	r31, 0xFA	; 250
    27d0:	80 83       	st	Z, r24
	if(progression_new_curr_step>16) func_process_seq();
    27d2:	91 31       	cpi	r25, 0x11	; 17
    27d4:	10 f0       	brcs	.+4      	; 0x27da <_Z18matrix_process_seqh+0x20>
    27d6:	0e 94 ce 13 	call	0x279c	; 0x279c <_Z16func_process_seqv>
	draw_number(progression_new_curr_step,56,41);
    27da:	80 91 40 05 	lds	r24, 0x0540	; 0x800540 <progression_new_curr_step>
    27de:	49 e2       	ldi	r20, 0x29	; 41
    27e0:	68 e3       	ldi	r22, 0x38	; 56
    27e2:	90 e0       	ldi	r25, 0x00	; 0
    27e4:	0e 94 9a 0d 	call	0x1b34	; 0x1b34 <_Z11draw_numberihh>
	fb.show();
    27e8:	86 e3       	ldi	r24, 0x36	; 54
    27ea:	91 e0       	ldi	r25, 0x01	; 1
    27ec:	0e 94 6e 0c 	call	0x18dc	; 0x18dc <_ZN11Framebuffer4showEv>
    27f0:	08 95       	ret

000027f2 <main>:
void flag_processer();
void revert_settings();
void copy_arrays();
int main(void) 
{
	DDRD |= (1<<SCAN0)|(1<<SCAN1)|(0<<ROW0)|(0<<ROW1)|(0<<ROW2)|(0<<ROW3);//init matrix
    27f2:	8a b1       	in	r24, 0x0a	; 10
    27f4:	80 6c       	ori	r24, 0xC0	; 192
    27f6:	8a b9       	out	0x0a, r24	; 10
	
	//DDRD = 0xFF;
	DDRC = 0xFF;
    27f8:	8f ef       	ldi	r24, 0xFF	; 255
    27fa:	87 b9       	out	0x07, r24	; 7
	DDRC |= (0<<STR_STP_BTN)|(0<<FUNC_BTN);//init function keys4
    27fc:	87 b1       	in	r24, 0x07	; 7
    27fe:	87 b9       	out	0x07, r24	; 7
	PORTC |= (1<<STR_STP_BTN)|(1<<FUNC_BTN);//for inverted logic
    2800:	88 b1       	in	r24, 0x08	; 8
    2802:	8c 60       	ori	r24, 0x0C	; 12
    2804:	88 b9       	out	0x08, r24	; 8
	
	//init phase

	initProgression();
    2806:	0e 94 ce 11 	call	0x239c	; 0x239c <_Z15initProgressionv>
	currentCell = progression[0];
    280a:	80 91 51 05 	lds	r24, 0x0551	; 0x800551 <progression>
    280e:	80 93 3f 05 	sts	0x053F, r24	; 0x80053f <currentCell>
	noteLengthDivision = 2;//each time division is changed setNewTIck must be called
    2812:	82 e0       	ldi	r24, 0x02	; 2
    2814:	80 93 09 01 	sts	0x0109, r24	; 0x800109 <noteLengthDivision>
	setNewTick(bpm,noteLengthDivision);//after currentCell is set
    2818:	80 91 08 01 	lds	r24, 0x0108	; 0x800108 <bpm>
    281c:	62 e0       	ldi	r22, 0x02	; 2
    281e:	70 e0       	ldi	r23, 0x00	; 0
    2820:	90 e0       	ldi	r25, 0x00	; 0
    2822:	0e 94 fe 10 	call	0x21fc	; 0x21fc <_Z10setNewTickii>
	initTimer();
    2826:	0e 94 8b 10 	call	0x2116	; 0x2116 <_Z9initTimerv>
	SPI_MasterInit();
    282a:	0e 94 97 11 	call	0x232e	; 0x232e <_Z14SPI_MasterInitv>
	draw_main();
    282e:	0e 94 07 0f 	call	0x1e0e	; 0x1e0e <_Z9draw_mainv>
	//end
	formVoltages(cells[0]);
    2832:	40 91 66 05 	lds	r20, 0x0566	; 0x800566 <cells>
    2836:	50 91 67 05 	lds	r21, 0x0567	; 0x800567 <cells+0x1>
    283a:	60 91 68 05 	lds	r22, 0x0568	; 0x800568 <cells+0x2>
    283e:	70 91 69 05 	lds	r23, 0x0569	; 0x800569 <cells+0x3>
    2842:	80 91 6a 05 	lds	r24, 0x056A	; 0x80056a <cells+0x4>
    2846:	0e 94 03 12 	call	0x2406	; 0x2406 <_Z12formVoltages9ChordCell>
	#else
		//round up by default
		__ticks_dc = (uint32_t)(ceil(fabs(__tmp)));
	#endif

	__builtin_avr_delay_cycles(__ticks_dc);
    284a:	2f ef       	ldi	r18, 0xFF	; 255
    284c:	80 e7       	ldi	r24, 0x70	; 112
    284e:	92 e0       	ldi	r25, 0x02	; 2
    2850:	21 50       	subi	r18, 0x01	; 1
    2852:	80 40       	sbci	r24, 0x00	; 0
    2854:	90 40       	sbci	r25, 0x00	; 0
    2856:	e1 f7       	brne	.-8      	; 0x2850 <main+0x5e>
    2858:	00 c0       	rjmp	.+0      	; 0x285a <main+0x68>
    285a:	00 00       	nop
		if(!(button_flag & (1<<0))&&(button_state(STR_STP_BTN)<<0))
		{
			if(settings_flag == 0)
			{
				button_flag |= (1<<0);
				isPlaying ^= 1;
    285c:	ff 24       	eor	r15, r15
    285e:	f3 94       	inc	r15
				PORTB|=(1<<0);
				tickCurrent = 0;
				currentCellPos = progression[0];
    2860:	01 e5       	ldi	r16, 0x51	; 81
    2862:	15 e0       	ldi	r17, 0x05	; 5
				draw_chord(currentCellPos);
				sendToDiodes((1<<(currentCellPos%8)));
    2864:	d1 e0       	ldi	r29, 0x01	; 1
	
	
	_delay_ms(50);
	while(1)
	{
		buttons = readMatrix();
    2866:	0e 94 c2 10 	call	0x2184	; 0x2184 <_Z10readMatrixv>
    286a:	80 93 39 05 	sts	0x0539, r24	; 0x800539 <buttons>
		//buttons_special = (button_state(STR_STP_BTN)<<0)|(button_state(FUNC_BTN)<<1);
		if(!(button_flag & (1<<0))&&(button_state(STR_STP_BTN)<<0))
    286e:	80 91 0a 01 	lds	r24, 0x010A	; 0x80010a <button_flag>
    2872:	80 fd       	sbrc	r24, 0
    2874:	6a c0       	rjmp	.+212    	; 0x294a <main+0x158>
    2876:	82 e0       	ldi	r24, 0x02	; 2
    2878:	0e 94 a3 10 	call	0x2146	; 0x2146 <_Z12button_stateh>
    287c:	88 23       	and	r24, r24
    287e:	09 f4       	brne	.+2      	; 0x2882 <main+0x90>
    2880:	64 c0       	rjmp	.+200    	; 0x294a <main+0x158>
		{
			if(settings_flag == 0)
    2882:	80 91 3c 05 	lds	r24, 0x053C	; 0x80053c <settings_flag>
    2886:	81 11       	cpse	r24, r1
    2888:	5a c0       	rjmp	.+180    	; 0x293e <main+0x14c>
			{
				button_flag |= (1<<0);
    288a:	80 91 0a 01 	lds	r24, 0x010A	; 0x80010a <button_flag>
    288e:	81 60       	ori	r24, 0x01	; 1
    2890:	80 93 0a 01 	sts	0x010A, r24	; 0x80010a <button_flag>
				isPlaying ^= 1;
    2894:	80 91 38 05 	lds	r24, 0x0538	; 0x800538 <isPlaying>
    2898:	8f 25       	eor	r24, r15
    289a:	80 93 38 05 	sts	0x0538, r24	; 0x800538 <isPlaying>
				PORTB|=(1<<0);
    289e:	28 9a       	sbi	0x05, 0	; 5
				tickCurrent = 0;
    28a0:	10 92 8e 05 	sts	0x058E, r1	; 0x80058e <tickCurrent>
    28a4:	10 92 8f 05 	sts	0x058F, r1	; 0x80058f <tickCurrent+0x1>
    28a8:	10 92 90 05 	sts	0x0590, r1	; 0x800590 <tickCurrent+0x2>
    28ac:	10 92 91 05 	sts	0x0591, r1	; 0x800591 <tickCurrent+0x3>
				currentCellPos = progression[0];
    28b0:	f8 01       	movw	r30, r16
    28b2:	80 81       	ld	r24, Z
    28b4:	80 93 3d 05 	sts	0x053D, r24	; 0x80053d <currentCellPos>
				draw_chord(currentCellPos);
    28b8:	0e 94 d6 0e 	call	0x1dac	; 0x1dac <_Z10draw_chordh>
				sendToDiodes((1<<(currentCellPos%8)));
    28bc:	80 91 3d 05 	lds	r24, 0x053D	; 0x80053d <currentCellPos>
    28c0:	87 70       	andi	r24, 0x07	; 7
    28c2:	fd 2f       	mov	r31, r29
    28c4:	01 c0       	rjmp	.+2      	; 0x28c8 <main+0xd6>
    28c6:	ff 0f       	add	r31, r31
    28c8:	8a 95       	dec	r24
    28ca:	ea f7       	brpl	.-6      	; 0x28c6 <main+0xd4>
    28cc:	8f 2f       	mov	r24, r31
    28ce:	0e 94 a2 11 	call	0x2344	; 0x2344 <_Z12sendToDiodesh>
				tickStop = (tickCount/100.0)*cells[currentCellPos].gate;
    28d2:	60 91 14 01 	lds	r22, 0x0114	; 0x800114 <tickCount>
    28d6:	70 91 15 01 	lds	r23, 0x0115	; 0x800115 <tickCount+0x1>
    28da:	80 91 16 01 	lds	r24, 0x0116	; 0x800116 <tickCount+0x2>
    28de:	90 91 17 01 	lds	r25, 0x0117	; 0x800117 <tickCount+0x3>
    28e2:	0e 94 24 17 	call	0x2e48	; 0x2e48 <__floatunsisf>
    28e6:	20 e0       	ldi	r18, 0x00	; 0
    28e8:	30 e0       	ldi	r19, 0x00	; 0
    28ea:	48 ec       	ldi	r20, 0xC8	; 200
    28ec:	52 e4       	ldi	r21, 0x42	; 66
    28ee:	0e 94 83 16 	call	0x2d06	; 0x2d06 <__divsf3>
    28f2:	4b 01       	movw	r8, r22
    28f4:	5c 01       	movw	r10, r24
    28f6:	80 91 3d 05 	lds	r24, 0x053D	; 0x80053d <currentCellPos>
    28fa:	90 e0       	ldi	r25, 0x00	; 0
    28fc:	fc 01       	movw	r30, r24
    28fe:	ee 0f       	add	r30, r30
    2900:	ff 1f       	adc	r31, r31
    2902:	ee 0f       	add	r30, r30
    2904:	ff 1f       	adc	r31, r31
    2906:	8e 0f       	add	r24, r30
    2908:	9f 1f       	adc	r25, r31
    290a:	fc 01       	movw	r30, r24
    290c:	ea 59       	subi	r30, 0x9A	; 154
    290e:	fa 4f       	sbci	r31, 0xFA	; 250
    2910:	64 81       	ldd	r22, Z+4	; 0x04
    2912:	70 e0       	ldi	r23, 0x00	; 0
    2914:	80 e0       	ldi	r24, 0x00	; 0
    2916:	90 e0       	ldi	r25, 0x00	; 0
    2918:	0e 94 26 17 	call	0x2e4c	; 0x2e4c <__floatsisf>
    291c:	9b 01       	movw	r18, r22
    291e:	ac 01       	movw	r20, r24
    2920:	c5 01       	movw	r24, r10
    2922:	b4 01       	movw	r22, r8
    2924:	0e 94 b2 17 	call	0x2f64	; 0x2f64 <__mulsf3>
    2928:	0e 94 f5 16 	call	0x2dea	; 0x2dea <__fixunssfsi>
    292c:	60 93 10 01 	sts	0x0110, r22	; 0x800110 <tickStop>
    2930:	70 93 11 01 	sts	0x0111, r23	; 0x800111 <tickStop+0x1>
    2934:	80 93 12 01 	sts	0x0112, r24	; 0x800112 <tickStop+0x2>
    2938:	90 93 13 01 	sts	0x0113, r25	; 0x800113 <tickStop+0x3>
    293c:	06 c0       	rjmp	.+12     	; 0x294a <main+0x158>
			}
			else
			{
				draw_main();
    293e:	0e 94 07 0f 	call	0x1e0e	; 0x1e0e <_Z9draw_mainv>
				revert_settings();
    2942:	0e 94 7b 10 	call	0x20f6	; 0x20f6 <_Z15revert_settingsv>
				settings_flag = 0;
    2946:	10 92 3c 05 	sts	0x053C, r1	; 0x80053c <settings_flag>
			}
		}
		if(!(button_flag & (1<<1))&&(button_state(FUNC_BTN)<<1))
    294a:	80 91 0a 01 	lds	r24, 0x010A	; 0x80010a <button_flag>
    294e:	81 fd       	sbrc	r24, 1
    2950:	30 c0       	rjmp	.+96     	; 0x29b2 <main+0x1c0>
    2952:	83 e0       	ldi	r24, 0x03	; 3
    2954:	0e 94 a3 10 	call	0x2146	; 0x2146 <_Z12button_stateh>
    2958:	88 23       	and	r24, r24
    295a:	09 f4       	brne	.+2      	; 0x295e <main+0x16c>
    295c:	87 c0       	rjmp	.+270    	; 0x2a6c <main+0x27a>
		{
			button_flag |= (1<<1);
    295e:	80 91 0a 01 	lds	r24, 0x010A	; 0x80010a <button_flag>
    2962:	82 60       	ori	r24, 0x02	; 2
    2964:	80 93 0a 01 	sts	0x010A, r24	; 0x80010a <button_flag>
			if(settings_flag == 0)
    2968:	80 91 3c 05 	lds	r24, 0x053C	; 0x80053c <settings_flag>
    296c:	81 11       	cpse	r24, r1
    296e:	03 c0       	rjmp	.+6      	; 0x2976 <main+0x184>
			{
				func_process_main();
    2970:	0e 94 93 0d 	call	0x1b26	; 0x1b26 <_Z17func_process_mainv>
    2974:	7b c0       	rjmp	.+246    	; 0x2a6c <main+0x27a>
			}
			else
			{
				switch(current_sett_win) {
    2976:	80 91 3b 05 	lds	r24, 0x053B	; 0x80053b <current_sett_win>
    297a:	82 30       	cpi	r24, 0x02	; 2
    297c:	89 f0       	breq	.+34     	; 0x29a0 <main+0x1ae>
    297e:	28 f4       	brcc	.+10     	; 0x298a <main+0x198>
    2980:	88 23       	and	r24, r24
    2982:	41 f0       	breq	.+16     	; 0x2994 <main+0x1a2>
    2984:	81 30       	cpi	r24, 0x01	; 1
    2986:	49 f0       	breq	.+18     	; 0x299a <main+0x1a8>
    2988:	14 c0       	rjmp	.+40     	; 0x29b2 <main+0x1c0>
    298a:	83 30       	cpi	r24, 0x03	; 3
    298c:	61 f0       	breq	.+24     	; 0x29a6 <main+0x1b4>
    298e:	84 30       	cpi	r24, 0x04	; 4
    2990:	69 f0       	breq	.+26     	; 0x29ac <main+0x1ba>
    2992:	0f c0       	rjmp	.+30     	; 0x29b2 <main+0x1c0>
					case 0 : func_process_settmain();
    2994:	0e 94 5c 10 	call	0x20b8	; 0x20b8 <_Z21func_process_settmainv>
					break;
    2998:	69 c0       	rjmp	.+210    	; 0x2a6c <main+0x27a>
					case 1 : func_process_time();
    299a:	0e 94 7d 11 	call	0x22fa	; 0x22fa <_Z17func_process_timev>
					break;
    299e:	66 c0       	rjmp	.+204    	; 0x2a6c <main+0x27a>
					case 2 : func_process_gate();
    29a0:	0e 94 22 0f 	call	0x1e44	; 0x1e44 <_Z17func_process_gatev>
					break;
    29a4:	63 c0       	rjmp	.+198    	; 0x2a6c <main+0x27a>
					case 3 : func_process_seq();
    29a6:	0e 94 ce 13 	call	0x279c	; 0x279c <_Z16func_process_seqv>
					break;
    29aa:	60 c0       	rjmp	.+192    	; 0x2a6c <main+0x27a>
					case 4 : func_process_chord();
    29ac:	0e 94 59 0f 	call	0x1eb2	; 0x1eb2 <_Z18func_process_chordv>
    29b0:	5d c0       	rjmp	.+186    	; 0x2a6c <main+0x27a>
				}
			}
			
		}
		if(buttons!=0x00)
    29b2:	80 91 39 05 	lds	r24, 0x0539	; 0x800539 <buttons>
    29b6:	88 23       	and	r24, r24
    29b8:	09 f4       	brne	.+2      	; 0x29bc <main+0x1ca>
    29ba:	4d c0       	rjmp	.+154    	; 0x2a56 <main+0x264>
		{
			
			for (uint8_t i=0;i<8;i++)
			{
				if(buttons & (1<<i))
    29bc:	48 2f       	mov	r20, r24
    29be:	50 e0       	ldi	r21, 0x00	; 0
    29c0:	80 fd       	sbrc	r24, 0
    29c2:	0d c0       	rjmp	.+26     	; 0x29de <main+0x1ec>
    29c4:	81 e0       	ldi	r24, 0x01	; 1
    29c6:	90 e0       	ldi	r25, 0x00	; 0
    29c8:	c8 2f       	mov	r28, r24
    29ca:	9a 01       	movw	r18, r20
    29cc:	08 2e       	mov	r0, r24
    29ce:	02 c0       	rjmp	.+4      	; 0x29d4 <main+0x1e2>
    29d0:	35 95       	asr	r19
    29d2:	27 95       	ror	r18
    29d4:	0a 94       	dec	r0
    29d6:	e2 f7       	brpl	.-8      	; 0x29d0 <main+0x1de>
    29d8:	20 ff       	sbrs	r18, 0
    29da:	37 c0       	rjmp	.+110    	; 0x2a4a <main+0x258>
    29dc:	01 c0       	rjmp	.+2      	; 0x29e0 <main+0x1ee>
    29de:	c0 e0       	ldi	r28, 0x00	; 0
				{
					if(settings_flag==0)
    29e0:	80 91 3c 05 	lds	r24, 0x053C	; 0x80053c <settings_flag>
    29e4:	81 11       	cpse	r24, r1
    29e6:	03 c0       	rjmp	.+6      	; 0x29ee <main+0x1fc>
					{
						matrix_process_main(i);
    29e8:	8c 2f       	mov	r24, r28
    29ea:	0e 94 c1 12 	call	0x2582	; 0x2582 <_Z19matrix_process_mainh>
					}
					if (!(button_flag & (1<<2))&&settings_flag==1)
    29ee:	80 91 0a 01 	lds	r24, 0x010A	; 0x80010a <button_flag>
    29f2:	82 fd       	sbrc	r24, 2
    29f4:	38 c0       	rjmp	.+112    	; 0x2a66 <main+0x274>
    29f6:	90 91 3c 05 	lds	r25, 0x053C	; 0x80053c <settings_flag>
    29fa:	91 30       	cpi	r25, 0x01	; 1
    29fc:	a1 f5       	brne	.+104    	; 0x2a66 <main+0x274>
					{
						
						button_flag |= (1<<2);
    29fe:	84 60       	ori	r24, 0x04	; 4
    2a00:	80 93 0a 01 	sts	0x010A, r24	; 0x80010a <button_flag>
						switch(current_sett_win) {
    2a04:	80 91 3b 05 	lds	r24, 0x053B	; 0x80053b <current_sett_win>
    2a08:	82 30       	cpi	r24, 0x02	; 2
    2a0a:	99 f0       	breq	.+38     	; 0x2a32 <main+0x240>
    2a0c:	28 f4       	brcc	.+10     	; 0x2a18 <main+0x226>
    2a0e:	88 23       	and	r24, r24
    2a10:	41 f0       	breq	.+16     	; 0x2a22 <main+0x230>
    2a12:	81 30       	cpi	r24, 0x01	; 1
    2a14:	51 f0       	breq	.+20     	; 0x2a2a <main+0x238>
    2a16:	27 c0       	rjmp	.+78     	; 0x2a66 <main+0x274>
    2a18:	83 30       	cpi	r24, 0x03	; 3
    2a1a:	79 f0       	breq	.+30     	; 0x2a3a <main+0x248>
    2a1c:	84 30       	cpi	r24, 0x04	; 4
    2a1e:	89 f0       	breq	.+34     	; 0x2a42 <main+0x250>
    2a20:	22 c0       	rjmp	.+68     	; 0x2a66 <main+0x274>
							case 0 : matrix_process_settmain(i);
    2a22:	8c 2f       	mov	r24, r28
    2a24:	0e 94 53 0d 	call	0x1aa6	; 0x1aa6 <_Z23matrix_process_settmainh>
							break;
    2a28:	1e c0       	rjmp	.+60     	; 0x2a66 <main+0x274>
							case 1 : matrix_process_time(i);
    2a2a:	8c 2f       	mov	r24, r28
    2a2c:	0e 94 f3 0d 	call	0x1be6	; 0x1be6 <_Z19matrix_process_timeh>
							break;
    2a30:	1a c0       	rjmp	.+52     	; 0x2a66 <main+0x274>
							case 2 : matrix_process_gate(i);
    2a32:	8c 2f       	mov	r24, r28
    2a34:	0e 94 30 0e 	call	0x1c60	; 0x1c60 <_Z19matrix_process_gateh>
							break;
    2a38:	16 c0       	rjmp	.+44     	; 0x2a66 <main+0x274>
							case 3 : matrix_process_seq(i);
    2a3a:	8c 2f       	mov	r24, r28
    2a3c:	0e 94 dd 13 	call	0x27ba	; 0x27ba <_Z18matrix_process_seqh>
							break;
    2a40:	12 c0       	rjmp	.+36     	; 0x2a66 <main+0x274>
							case 4 : matrix_process_chord(i);
    2a42:	8c 2f       	mov	r24, r28
    2a44:	0e 94 6b 0e 	call	0x1cd6	; 0x1cd6 <_Z20matrix_process_chordh>
    2a48:	0e c0       	rjmp	.+28     	; 0x2a66 <main+0x274>
    2a4a:	01 96       	adiw	r24, 0x01	; 1
			
		}
		if(buttons!=0x00)
		{
			
			for (uint8_t i=0;i<8;i++)
    2a4c:	88 30       	cpi	r24, 0x08	; 8
    2a4e:	91 05       	cpc	r25, r1
    2a50:	09 f0       	breq	.+2      	; 0x2a54 <main+0x262>
    2a52:	ba cf       	rjmp	.-140    	; 0x29c8 <main+0x1d6>
    2a54:	08 c0       	rjmp	.+16     	; 0x2a66 <main+0x274>
				}
			}
		}
		else
		{
			if(isPlaying == 0){
    2a56:	80 91 38 05 	lds	r24, 0x0538	; 0x800538 <isPlaying>
    2a5a:	81 11       	cpse	r24, r1
    2a5c:	01 c0       	rjmp	.+2      	; 0x2a60 <main+0x26e>
				PORTB&=~(1<<0);//turn down since we dont pressing any button and seq isnt running
    2a5e:	28 98       	cbi	0x05, 0	; 5
			}
			sendToDiodes(0);
    2a60:	80 e0       	ldi	r24, 0x00	; 0
    2a62:	0e 94 a2 11 	call	0x2344	; 0x2344 <_Z12sendToDiodesh>
		}	
		flag_processer();
    2a66:	0e 94 de 10 	call	0x21bc	; 0x21bc <_Z14flag_processerv>
	//end
	formVoltages(cells[0]);
	
	
	_delay_ms(50);
	while(1)
    2a6a:	fd ce       	rjmp	.-518    	; 0x2866 <main+0x74>
					case 4 : func_process_chord();
				}
			}
			
		}
		if(buttons!=0x00)
    2a6c:	80 91 39 05 	lds	r24, 0x0539	; 0x800539 <buttons>
    2a70:	81 11       	cpse	r24, r1
    2a72:	a4 cf       	rjmp	.-184    	; 0x29bc <main+0x1ca>
    2a74:	f0 cf       	rjmp	.-32     	; 0x2a56 <main+0x264>

00002a76 <_GLOBAL__sub_I_setts>:
uint8_t last_choice = 1;
uint8_t _setbpm = 120;
uint8_t buttons = 0b00000000;
uint8_t buttons_special = 0;
uint8_t isPlaying = 0;
Framebuffer fb;
    2a76:	86 e3       	ldi	r24, 0x36	; 54
    2a78:	91 e0       	ldi	r25, 0x01	; 1
    2a7a:	0e 94 62 0c 	call	0x18c4	; 0x18c4 <_ZN11FramebufferC1Ev>
    2a7e:	08 95       	ret

00002a80 <_ZN7SSD130611sendCommandEh>:

void SSD1306::invert(uint8_t inverted) {
    if (inverted) {
        sendCommand(SSD1306_INVERTDISPLAY);
    } else {
        sendCommand(SSD1306_NORMALDISPLAY);
    2a80:	1f 93       	push	r17
    2a82:	cf 93       	push	r28
    2a84:	df 93       	push	r29
    2a86:	ec 01       	movw	r28, r24
    2a88:	16 2f       	mov	r17, r22
    2a8a:	0e 94 7c 0c 	call	0x18f8	; 0x18f8 <_ZN3I2C5startEv>
    2a8e:	60 e0       	ldi	r22, 0x00	; 0
    2a90:	ce 01       	movw	r24, r28
    2a92:	0e 94 aa 0c 	call	0x1954	; 0x1954 <_ZN3I2C5writeEh>
    2a96:	61 2f       	mov	r22, r17
    2a98:	ce 01       	movw	r24, r28
    2a9a:	0e 94 aa 0c 	call	0x1954	; 0x1954 <_ZN3I2C5writeEh>
    2a9e:	ce 01       	movw	r24, r28
    2aa0:	0e 94 bf 0c 	call	0x197e	; 0x197e <_ZN3I2C4stopEv>
    2aa4:	df 91       	pop	r29
    2aa6:	cf 91       	pop	r28
    2aa8:	1f 91       	pop	r17
    2aaa:	08 95       	ret

00002aac <_ZN7SSD1306C1Ev>:
    2aac:	cf 93       	push	r28
    2aae:	df 93       	push	r29
    2ab0:	ec 01       	movw	r28, r24
    2ab2:	0e 94 73 0c 	call	0x18e6	; 0x18e6 <_ZN3I2CC1Ev>
    2ab6:	68 e7       	ldi	r22, 0x78	; 120
    2ab8:	ce 01       	movw	r24, r28
    2aba:	0e 94 74 0c 	call	0x18e8	; 0x18e8 <_ZN3I2C4initEh>
    2abe:	6e ea       	ldi	r22, 0xAE	; 174
    2ac0:	ce 01       	movw	r24, r28
    2ac2:	0e 94 40 15 	call	0x2a80	; 0x2a80 <_ZN7SSD130611sendCommandEh>
    2ac6:	65 ed       	ldi	r22, 0xD5	; 213
    2ac8:	ce 01       	movw	r24, r28
    2aca:	0e 94 40 15 	call	0x2a80	; 0x2a80 <_ZN7SSD130611sendCommandEh>
    2ace:	60 e8       	ldi	r22, 0x80	; 128
    2ad0:	ce 01       	movw	r24, r28
    2ad2:	0e 94 40 15 	call	0x2a80	; 0x2a80 <_ZN7SSD130611sendCommandEh>
    2ad6:	68 ea       	ldi	r22, 0xA8	; 168
    2ad8:	ce 01       	movw	r24, r28
    2ada:	0e 94 40 15 	call	0x2a80	; 0x2a80 <_ZN7SSD130611sendCommandEh>
    2ade:	6f e3       	ldi	r22, 0x3F	; 63
    2ae0:	ce 01       	movw	r24, r28
    2ae2:	0e 94 40 15 	call	0x2a80	; 0x2a80 <_ZN7SSD130611sendCommandEh>
    2ae6:	63 ed       	ldi	r22, 0xD3	; 211
    2ae8:	ce 01       	movw	r24, r28
    2aea:	0e 94 40 15 	call	0x2a80	; 0x2a80 <_ZN7SSD130611sendCommandEh>
    2aee:	60 e0       	ldi	r22, 0x00	; 0
    2af0:	ce 01       	movw	r24, r28
    2af2:	0e 94 40 15 	call	0x2a80	; 0x2a80 <_ZN7SSD130611sendCommandEh>
    2af6:	60 e4       	ldi	r22, 0x40	; 64
    2af8:	ce 01       	movw	r24, r28
    2afa:	0e 94 40 15 	call	0x2a80	; 0x2a80 <_ZN7SSD130611sendCommandEh>
    2afe:	6d e8       	ldi	r22, 0x8D	; 141
    2b00:	ce 01       	movw	r24, r28
    2b02:	0e 94 40 15 	call	0x2a80	; 0x2a80 <_ZN7SSD130611sendCommandEh>
    2b06:	64 e1       	ldi	r22, 0x14	; 20
    2b08:	ce 01       	movw	r24, r28
    2b0a:	0e 94 40 15 	call	0x2a80	; 0x2a80 <_ZN7SSD130611sendCommandEh>
    2b0e:	60 e2       	ldi	r22, 0x20	; 32
    2b10:	ce 01       	movw	r24, r28
    2b12:	0e 94 40 15 	call	0x2a80	; 0x2a80 <_ZN7SSD130611sendCommandEh>
    2b16:	60 e0       	ldi	r22, 0x00	; 0
    2b18:	ce 01       	movw	r24, r28
    2b1a:	0e 94 40 15 	call	0x2a80	; 0x2a80 <_ZN7SSD130611sendCommandEh>
    2b1e:	61 ea       	ldi	r22, 0xA1	; 161
    2b20:	ce 01       	movw	r24, r28
    2b22:	0e 94 40 15 	call	0x2a80	; 0x2a80 <_ZN7SSD130611sendCommandEh>
    2b26:	68 ec       	ldi	r22, 0xC8	; 200
    2b28:	ce 01       	movw	r24, r28
    2b2a:	0e 94 40 15 	call	0x2a80	; 0x2a80 <_ZN7SSD130611sendCommandEh>
    2b2e:	6a ed       	ldi	r22, 0xDA	; 218
    2b30:	ce 01       	movw	r24, r28
    2b32:	0e 94 40 15 	call	0x2a80	; 0x2a80 <_ZN7SSD130611sendCommandEh>
    2b36:	62 e1       	ldi	r22, 0x12	; 18
    2b38:	ce 01       	movw	r24, r28
    2b3a:	0e 94 40 15 	call	0x2a80	; 0x2a80 <_ZN7SSD130611sendCommandEh>
    2b3e:	61 e8       	ldi	r22, 0x81	; 129
    2b40:	ce 01       	movw	r24, r28
    2b42:	0e 94 40 15 	call	0x2a80	; 0x2a80 <_ZN7SSD130611sendCommandEh>
    2b46:	6f ec       	ldi	r22, 0xCF	; 207
    2b48:	ce 01       	movw	r24, r28
    2b4a:	0e 94 40 15 	call	0x2a80	; 0x2a80 <_ZN7SSD130611sendCommandEh>
    2b4e:	69 ed       	ldi	r22, 0xD9	; 217
    2b50:	ce 01       	movw	r24, r28
    2b52:	0e 94 40 15 	call	0x2a80	; 0x2a80 <_ZN7SSD130611sendCommandEh>
    2b56:	61 ef       	ldi	r22, 0xF1	; 241
    2b58:	ce 01       	movw	r24, r28
    2b5a:	0e 94 40 15 	call	0x2a80	; 0x2a80 <_ZN7SSD130611sendCommandEh>
    2b5e:	6b ed       	ldi	r22, 0xDB	; 219
    2b60:	ce 01       	movw	r24, r28
    2b62:	0e 94 40 15 	call	0x2a80	; 0x2a80 <_ZN7SSD130611sendCommandEh>
    2b66:	60 e4       	ldi	r22, 0x40	; 64
    2b68:	ce 01       	movw	r24, r28
    2b6a:	0e 94 40 15 	call	0x2a80	; 0x2a80 <_ZN7SSD130611sendCommandEh>
    2b6e:	64 ea       	ldi	r22, 0xA4	; 164
    2b70:	ce 01       	movw	r24, r28
    2b72:	0e 94 40 15 	call	0x2a80	; 0x2a80 <_ZN7SSD130611sendCommandEh>
    2b76:	66 ea       	ldi	r22, 0xA6	; 166
    2b78:	ce 01       	movw	r24, r28
    2b7a:	0e 94 40 15 	call	0x2a80	; 0x2a80 <_ZN7SSD130611sendCommandEh>
    2b7e:	6f ea       	ldi	r22, 0xAF	; 175
    2b80:	ce 01       	movw	r24, r28
    2b82:	0e 94 40 15 	call	0x2a80	; 0x2a80 <_ZN7SSD130611sendCommandEh>
    2b86:	df 91       	pop	r29
    2b88:	cf 91       	pop	r28
    2b8a:	08 95       	ret

00002b8c <_ZN7SSD130615sendFramebufferEPh>:
    }
}

void SSD1306::sendFramebuffer(uint8_t *buffer) {
    2b8c:	cf 92       	push	r12
    2b8e:	df 92       	push	r13
    2b90:	ef 92       	push	r14
    2b92:	ff 92       	push	r15
    2b94:	0f 93       	push	r16
    2b96:	1f 93       	push	r17
    2b98:	cf 93       	push	r28
    2b9a:	df 93       	push	r29
    2b9c:	08 2f       	mov	r16, r24
    2b9e:	19 2f       	mov	r17, r25
    2ba0:	7b 01       	movw	r14, r22
    sendCommand(SSD1306_COLUMNADDR);
    2ba2:	61 e2       	ldi	r22, 0x21	; 33
    2ba4:	0e 94 40 15 	call	0x2a80	; 0x2a80 <_ZN7SSD130611sendCommandEh>
    sendCommand(0x00);
    2ba8:	60 e0       	ldi	r22, 0x00	; 0
    2baa:	80 2f       	mov	r24, r16
    2bac:	91 2f       	mov	r25, r17
    2bae:	0e 94 40 15 	call	0x2a80	; 0x2a80 <_ZN7SSD130611sendCommandEh>
    sendCommand(0x7F);
    2bb2:	6f e7       	ldi	r22, 0x7F	; 127
    2bb4:	80 2f       	mov	r24, r16
    2bb6:	91 2f       	mov	r25, r17
    2bb8:	0e 94 40 15 	call	0x2a80	; 0x2a80 <_ZN7SSD130611sendCommandEh>

    sendCommand(SSD1306_PAGEADDR);
    2bbc:	62 e2       	ldi	r22, 0x22	; 34
    2bbe:	80 2f       	mov	r24, r16
    2bc0:	91 2f       	mov	r25, r17
    2bc2:	0e 94 40 15 	call	0x2a80	; 0x2a80 <_ZN7SSD130611sendCommandEh>
    sendCommand(0x00);
    2bc6:	60 e0       	ldi	r22, 0x00	; 0
    2bc8:	80 2f       	mov	r24, r16
    2bca:	91 2f       	mov	r25, r17
    2bcc:	0e 94 40 15 	call	0x2a80	; 0x2a80 <_ZN7SSD130611sendCommandEh>
    sendCommand(0x07);
    2bd0:	67 e0       	ldi	r22, 0x07	; 7
    2bd2:	80 2f       	mov	r24, r16
    2bd4:	91 2f       	mov	r25, r17
    2bd6:	0e 94 40 15 	call	0x2a80	; 0x2a80 <_ZN7SSD130611sendCommandEh>
    2bda:	e7 01       	movw	r28, r14
    2bdc:	8c ef       	ldi	r24, 0xFC	; 252
    2bde:	f8 1a       	sub	r15, r24

    // We have to send the buffer as 16 bytes packets
    // Our buffer is 1024 bytes long, 1024/16 = 64
    // We have to send 64 packets
    for (uint8_t packet = 0; packet < 64; packet++) {
        i2c.start();
    2be0:	80 2f       	mov	r24, r16
    2be2:	91 2f       	mov	r25, r17
    2be4:	0e 94 7c 0c 	call	0x18f8	; 0x18f8 <_ZN3I2C5startEv>
        i2c.write(0x40);
    2be8:	60 e4       	ldi	r22, 0x40	; 64
    2bea:	80 2f       	mov	r24, r16
    2bec:	91 2f       	mov	r25, r17
    2bee:	0e 94 aa 0c 	call	0x1954	; 0x1954 <_ZN3I2C5writeEh>
    2bf2:	6e 01       	movw	r12, r28
    2bf4:	80 e1       	ldi	r24, 0x10	; 16
    2bf6:	c8 0e       	add	r12, r24
    2bf8:	d1 1c       	adc	r13, r1
        for (uint8_t packet_byte = 0; packet_byte < 16; ++packet_byte) {
            i2c.write(buffer[packet*16+packet_byte]);
    2bfa:	69 91       	ld	r22, Y+
    2bfc:	80 2f       	mov	r24, r16
    2bfe:	91 2f       	mov	r25, r17
    2c00:	0e 94 aa 0c 	call	0x1954	; 0x1954 <_ZN3I2C5writeEh>
    // Our buffer is 1024 bytes long, 1024/16 = 64
    // We have to send 64 packets
    for (uint8_t packet = 0; packet < 64; packet++) {
        i2c.start();
        i2c.write(0x40);
        for (uint8_t packet_byte = 0; packet_byte < 16; ++packet_byte) {
    2c04:	cc 15       	cp	r28, r12
    2c06:	dd 05       	cpc	r29, r13
    2c08:	c1 f7       	brne	.-16     	; 0x2bfa <_ZN7SSD130615sendFramebufferEPh+0x6e>
            i2c.write(buffer[packet*16+packet_byte]);
        }
        i2c.stop();
    2c0a:	80 2f       	mov	r24, r16
    2c0c:	91 2f       	mov	r25, r17
    2c0e:	0e 94 bf 0c 	call	0x197e	; 0x197e <_ZN3I2C4stopEv>
    2c12:	e6 01       	movw	r28, r12
    sendCommand(0x07);

    // We have to send the buffer as 16 bytes packets
    // Our buffer is 1024 bytes long, 1024/16 = 64
    // We have to send 64 packets
    for (uint8_t packet = 0; packet < 64; packet++) {
    2c14:	ec 14       	cp	r14, r12
    2c16:	fd 04       	cpc	r15, r13
    2c18:	19 f7       	brne	.-58     	; 0x2be0 <_ZN7SSD130615sendFramebufferEPh+0x54>
        for (uint8_t packet_byte = 0; packet_byte < 16; ++packet_byte) {
            i2c.write(buffer[packet*16+packet_byte]);
        }
        i2c.stop();
    }
    2c1a:	df 91       	pop	r29
    2c1c:	cf 91       	pop	r28
    2c1e:	1f 91       	pop	r17
    2c20:	0f 91       	pop	r16
    2c22:	ff 90       	pop	r15
    2c24:	ef 90       	pop	r14
    2c26:	df 90       	pop	r13
    2c28:	cf 90       	pop	r12
    2c2a:	08 95       	ret

00002c2c <__subsf3>:
    2c2c:	50 58       	subi	r21, 0x80	; 128

00002c2e <__addsf3>:
    2c2e:	bb 27       	eor	r27, r27
    2c30:	aa 27       	eor	r26, r26
    2c32:	0e 94 2e 16 	call	0x2c5c	; 0x2c5c <__addsf3x>
    2c36:	0c 94 78 17 	jmp	0x2ef0	; 0x2ef0 <__fp_round>
    2c3a:	0e 94 6a 17 	call	0x2ed4	; 0x2ed4 <__fp_pscA>
    2c3e:	38 f0       	brcs	.+14     	; 0x2c4e <__addsf3+0x20>
    2c40:	0e 94 71 17 	call	0x2ee2	; 0x2ee2 <__fp_pscB>
    2c44:	20 f0       	brcs	.+8      	; 0x2c4e <__addsf3+0x20>
    2c46:	39 f4       	brne	.+14     	; 0x2c56 <__addsf3+0x28>
    2c48:	9f 3f       	cpi	r25, 0xFF	; 255
    2c4a:	19 f4       	brne	.+6      	; 0x2c52 <__addsf3+0x24>
    2c4c:	26 f4       	brtc	.+8      	; 0x2c56 <__addsf3+0x28>
    2c4e:	0c 94 67 17 	jmp	0x2ece	; 0x2ece <__fp_nan>
    2c52:	0e f4       	brtc	.+2      	; 0x2c56 <__addsf3+0x28>
    2c54:	e0 95       	com	r30
    2c56:	e7 fb       	bst	r30, 7
    2c58:	0c 94 61 17 	jmp	0x2ec2	; 0x2ec2 <__fp_inf>

00002c5c <__addsf3x>:
    2c5c:	e9 2f       	mov	r30, r25
    2c5e:	0e 94 89 17 	call	0x2f12	; 0x2f12 <__fp_split3>
    2c62:	58 f3       	brcs	.-42     	; 0x2c3a <__addsf3+0xc>
    2c64:	ba 17       	cp	r27, r26
    2c66:	62 07       	cpc	r22, r18
    2c68:	73 07       	cpc	r23, r19
    2c6a:	84 07       	cpc	r24, r20
    2c6c:	95 07       	cpc	r25, r21
    2c6e:	20 f0       	brcs	.+8      	; 0x2c78 <__addsf3x+0x1c>
    2c70:	79 f4       	brne	.+30     	; 0x2c90 <__addsf3x+0x34>
    2c72:	a6 f5       	brtc	.+104    	; 0x2cdc <__addsf3x+0x80>
    2c74:	0c 94 ab 17 	jmp	0x2f56	; 0x2f56 <__fp_zero>
    2c78:	0e f4       	brtc	.+2      	; 0x2c7c <__addsf3x+0x20>
    2c7a:	e0 95       	com	r30
    2c7c:	0b 2e       	mov	r0, r27
    2c7e:	ba 2f       	mov	r27, r26
    2c80:	a0 2d       	mov	r26, r0
    2c82:	0b 01       	movw	r0, r22
    2c84:	b9 01       	movw	r22, r18
    2c86:	90 01       	movw	r18, r0
    2c88:	0c 01       	movw	r0, r24
    2c8a:	ca 01       	movw	r24, r20
    2c8c:	a0 01       	movw	r20, r0
    2c8e:	11 24       	eor	r1, r1
    2c90:	ff 27       	eor	r31, r31
    2c92:	59 1b       	sub	r21, r25
    2c94:	99 f0       	breq	.+38     	; 0x2cbc <__addsf3x+0x60>
    2c96:	59 3f       	cpi	r21, 0xF9	; 249
    2c98:	50 f4       	brcc	.+20     	; 0x2cae <__addsf3x+0x52>
    2c9a:	50 3e       	cpi	r21, 0xE0	; 224
    2c9c:	68 f1       	brcs	.+90     	; 0x2cf8 <__addsf3x+0x9c>
    2c9e:	1a 16       	cp	r1, r26
    2ca0:	f0 40       	sbci	r31, 0x00	; 0
    2ca2:	a2 2f       	mov	r26, r18
    2ca4:	23 2f       	mov	r18, r19
    2ca6:	34 2f       	mov	r19, r20
    2ca8:	44 27       	eor	r20, r20
    2caa:	58 5f       	subi	r21, 0xF8	; 248
    2cac:	f3 cf       	rjmp	.-26     	; 0x2c94 <__addsf3x+0x38>
    2cae:	46 95       	lsr	r20
    2cb0:	37 95       	ror	r19
    2cb2:	27 95       	ror	r18
    2cb4:	a7 95       	ror	r26
    2cb6:	f0 40       	sbci	r31, 0x00	; 0
    2cb8:	53 95       	inc	r21
    2cba:	c9 f7       	brne	.-14     	; 0x2cae <__addsf3x+0x52>
    2cbc:	7e f4       	brtc	.+30     	; 0x2cdc <__addsf3x+0x80>
    2cbe:	1f 16       	cp	r1, r31
    2cc0:	ba 0b       	sbc	r27, r26
    2cc2:	62 0b       	sbc	r22, r18
    2cc4:	73 0b       	sbc	r23, r19
    2cc6:	84 0b       	sbc	r24, r20
    2cc8:	ba f0       	brmi	.+46     	; 0x2cf8 <__addsf3x+0x9c>
    2cca:	91 50       	subi	r25, 0x01	; 1
    2ccc:	a1 f0       	breq	.+40     	; 0x2cf6 <__addsf3x+0x9a>
    2cce:	ff 0f       	add	r31, r31
    2cd0:	bb 1f       	adc	r27, r27
    2cd2:	66 1f       	adc	r22, r22
    2cd4:	77 1f       	adc	r23, r23
    2cd6:	88 1f       	adc	r24, r24
    2cd8:	c2 f7       	brpl	.-16     	; 0x2cca <__addsf3x+0x6e>
    2cda:	0e c0       	rjmp	.+28     	; 0x2cf8 <__addsf3x+0x9c>
    2cdc:	ba 0f       	add	r27, r26
    2cde:	62 1f       	adc	r22, r18
    2ce0:	73 1f       	adc	r23, r19
    2ce2:	84 1f       	adc	r24, r20
    2ce4:	48 f4       	brcc	.+18     	; 0x2cf8 <__addsf3x+0x9c>
    2ce6:	87 95       	ror	r24
    2ce8:	77 95       	ror	r23
    2cea:	67 95       	ror	r22
    2cec:	b7 95       	ror	r27
    2cee:	f7 95       	ror	r31
    2cf0:	9e 3f       	cpi	r25, 0xFE	; 254
    2cf2:	08 f0       	brcs	.+2      	; 0x2cf6 <__addsf3x+0x9a>
    2cf4:	b0 cf       	rjmp	.-160    	; 0x2c56 <__addsf3+0x28>
    2cf6:	93 95       	inc	r25
    2cf8:	88 0f       	add	r24, r24
    2cfa:	08 f0       	brcs	.+2      	; 0x2cfe <__addsf3x+0xa2>
    2cfc:	99 27       	eor	r25, r25
    2cfe:	ee 0f       	add	r30, r30
    2d00:	97 95       	ror	r25
    2d02:	87 95       	ror	r24
    2d04:	08 95       	ret

00002d06 <__divsf3>:
    2d06:	0e 94 97 16 	call	0x2d2e	; 0x2d2e <__divsf3x>
    2d0a:	0c 94 78 17 	jmp	0x2ef0	; 0x2ef0 <__fp_round>
    2d0e:	0e 94 71 17 	call	0x2ee2	; 0x2ee2 <__fp_pscB>
    2d12:	58 f0       	brcs	.+22     	; 0x2d2a <__divsf3+0x24>
    2d14:	0e 94 6a 17 	call	0x2ed4	; 0x2ed4 <__fp_pscA>
    2d18:	40 f0       	brcs	.+16     	; 0x2d2a <__divsf3+0x24>
    2d1a:	29 f4       	brne	.+10     	; 0x2d26 <__divsf3+0x20>
    2d1c:	5f 3f       	cpi	r21, 0xFF	; 255
    2d1e:	29 f0       	breq	.+10     	; 0x2d2a <__divsf3+0x24>
    2d20:	0c 94 61 17 	jmp	0x2ec2	; 0x2ec2 <__fp_inf>
    2d24:	51 11       	cpse	r21, r1
    2d26:	0c 94 ac 17 	jmp	0x2f58	; 0x2f58 <__fp_szero>
    2d2a:	0c 94 67 17 	jmp	0x2ece	; 0x2ece <__fp_nan>

00002d2e <__divsf3x>:
    2d2e:	0e 94 89 17 	call	0x2f12	; 0x2f12 <__fp_split3>
    2d32:	68 f3       	brcs	.-38     	; 0x2d0e <__divsf3+0x8>

00002d34 <__divsf3_pse>:
    2d34:	99 23       	and	r25, r25
    2d36:	b1 f3       	breq	.-20     	; 0x2d24 <__divsf3+0x1e>
    2d38:	55 23       	and	r21, r21
    2d3a:	91 f3       	breq	.-28     	; 0x2d20 <__divsf3+0x1a>
    2d3c:	95 1b       	sub	r25, r21
    2d3e:	55 0b       	sbc	r21, r21
    2d40:	bb 27       	eor	r27, r27
    2d42:	aa 27       	eor	r26, r26
    2d44:	62 17       	cp	r22, r18
    2d46:	73 07       	cpc	r23, r19
    2d48:	84 07       	cpc	r24, r20
    2d4a:	38 f0       	brcs	.+14     	; 0x2d5a <__divsf3_pse+0x26>
    2d4c:	9f 5f       	subi	r25, 0xFF	; 255
    2d4e:	5f 4f       	sbci	r21, 0xFF	; 255
    2d50:	22 0f       	add	r18, r18
    2d52:	33 1f       	adc	r19, r19
    2d54:	44 1f       	adc	r20, r20
    2d56:	aa 1f       	adc	r26, r26
    2d58:	a9 f3       	breq	.-22     	; 0x2d44 <__divsf3_pse+0x10>
    2d5a:	35 d0       	rcall	.+106    	; 0x2dc6 <__divsf3_pse+0x92>
    2d5c:	0e 2e       	mov	r0, r30
    2d5e:	3a f0       	brmi	.+14     	; 0x2d6e <__divsf3_pse+0x3a>
    2d60:	e0 e8       	ldi	r30, 0x80	; 128
    2d62:	32 d0       	rcall	.+100    	; 0x2dc8 <__divsf3_pse+0x94>
    2d64:	91 50       	subi	r25, 0x01	; 1
    2d66:	50 40       	sbci	r21, 0x00	; 0
    2d68:	e6 95       	lsr	r30
    2d6a:	00 1c       	adc	r0, r0
    2d6c:	ca f7       	brpl	.-14     	; 0x2d60 <__divsf3_pse+0x2c>
    2d6e:	2b d0       	rcall	.+86     	; 0x2dc6 <__divsf3_pse+0x92>
    2d70:	fe 2f       	mov	r31, r30
    2d72:	29 d0       	rcall	.+82     	; 0x2dc6 <__divsf3_pse+0x92>
    2d74:	66 0f       	add	r22, r22
    2d76:	77 1f       	adc	r23, r23
    2d78:	88 1f       	adc	r24, r24
    2d7a:	bb 1f       	adc	r27, r27
    2d7c:	26 17       	cp	r18, r22
    2d7e:	37 07       	cpc	r19, r23
    2d80:	48 07       	cpc	r20, r24
    2d82:	ab 07       	cpc	r26, r27
    2d84:	b0 e8       	ldi	r27, 0x80	; 128
    2d86:	09 f0       	breq	.+2      	; 0x2d8a <__divsf3_pse+0x56>
    2d88:	bb 0b       	sbc	r27, r27
    2d8a:	80 2d       	mov	r24, r0
    2d8c:	bf 01       	movw	r22, r30
    2d8e:	ff 27       	eor	r31, r31
    2d90:	93 58       	subi	r25, 0x83	; 131
    2d92:	5f 4f       	sbci	r21, 0xFF	; 255
    2d94:	3a f0       	brmi	.+14     	; 0x2da4 <__divsf3_pse+0x70>
    2d96:	9e 3f       	cpi	r25, 0xFE	; 254
    2d98:	51 05       	cpc	r21, r1
    2d9a:	78 f0       	brcs	.+30     	; 0x2dba <__divsf3_pse+0x86>
    2d9c:	0c 94 61 17 	jmp	0x2ec2	; 0x2ec2 <__fp_inf>
    2da0:	0c 94 ac 17 	jmp	0x2f58	; 0x2f58 <__fp_szero>
    2da4:	5f 3f       	cpi	r21, 0xFF	; 255
    2da6:	e4 f3       	brlt	.-8      	; 0x2da0 <__divsf3_pse+0x6c>
    2da8:	98 3e       	cpi	r25, 0xE8	; 232
    2daa:	d4 f3       	brlt	.-12     	; 0x2da0 <__divsf3_pse+0x6c>
    2dac:	86 95       	lsr	r24
    2dae:	77 95       	ror	r23
    2db0:	67 95       	ror	r22
    2db2:	b7 95       	ror	r27
    2db4:	f7 95       	ror	r31
    2db6:	9f 5f       	subi	r25, 0xFF	; 255
    2db8:	c9 f7       	brne	.-14     	; 0x2dac <__divsf3_pse+0x78>
    2dba:	88 0f       	add	r24, r24
    2dbc:	91 1d       	adc	r25, r1
    2dbe:	96 95       	lsr	r25
    2dc0:	87 95       	ror	r24
    2dc2:	97 f9       	bld	r25, 7
    2dc4:	08 95       	ret
    2dc6:	e1 e0       	ldi	r30, 0x01	; 1
    2dc8:	66 0f       	add	r22, r22
    2dca:	77 1f       	adc	r23, r23
    2dcc:	88 1f       	adc	r24, r24
    2dce:	bb 1f       	adc	r27, r27
    2dd0:	62 17       	cp	r22, r18
    2dd2:	73 07       	cpc	r23, r19
    2dd4:	84 07       	cpc	r24, r20
    2dd6:	ba 07       	cpc	r27, r26
    2dd8:	20 f0       	brcs	.+8      	; 0x2de2 <__divsf3_pse+0xae>
    2dda:	62 1b       	sub	r22, r18
    2ddc:	73 0b       	sbc	r23, r19
    2dde:	84 0b       	sbc	r24, r20
    2de0:	ba 0b       	sbc	r27, r26
    2de2:	ee 1f       	adc	r30, r30
    2de4:	88 f7       	brcc	.-30     	; 0x2dc8 <__divsf3_pse+0x94>
    2de6:	e0 95       	com	r30
    2de8:	08 95       	ret

00002dea <__fixunssfsi>:
    2dea:	0e 94 91 17 	call	0x2f22	; 0x2f22 <__fp_splitA>
    2dee:	88 f0       	brcs	.+34     	; 0x2e12 <__fixunssfsi+0x28>
    2df0:	9f 57       	subi	r25, 0x7F	; 127
    2df2:	98 f0       	brcs	.+38     	; 0x2e1a <__fixunssfsi+0x30>
    2df4:	b9 2f       	mov	r27, r25
    2df6:	99 27       	eor	r25, r25
    2df8:	b7 51       	subi	r27, 0x17	; 23
    2dfa:	b0 f0       	brcs	.+44     	; 0x2e28 <__fixunssfsi+0x3e>
    2dfc:	e1 f0       	breq	.+56     	; 0x2e36 <__fixunssfsi+0x4c>
    2dfe:	66 0f       	add	r22, r22
    2e00:	77 1f       	adc	r23, r23
    2e02:	88 1f       	adc	r24, r24
    2e04:	99 1f       	adc	r25, r25
    2e06:	1a f0       	brmi	.+6      	; 0x2e0e <__fixunssfsi+0x24>
    2e08:	ba 95       	dec	r27
    2e0a:	c9 f7       	brne	.-14     	; 0x2dfe <__fixunssfsi+0x14>
    2e0c:	14 c0       	rjmp	.+40     	; 0x2e36 <__fixunssfsi+0x4c>
    2e0e:	b1 30       	cpi	r27, 0x01	; 1
    2e10:	91 f0       	breq	.+36     	; 0x2e36 <__fixunssfsi+0x4c>
    2e12:	0e 94 ab 17 	call	0x2f56	; 0x2f56 <__fp_zero>
    2e16:	b1 e0       	ldi	r27, 0x01	; 1
    2e18:	08 95       	ret
    2e1a:	0c 94 ab 17 	jmp	0x2f56	; 0x2f56 <__fp_zero>
    2e1e:	67 2f       	mov	r22, r23
    2e20:	78 2f       	mov	r23, r24
    2e22:	88 27       	eor	r24, r24
    2e24:	b8 5f       	subi	r27, 0xF8	; 248
    2e26:	39 f0       	breq	.+14     	; 0x2e36 <__fixunssfsi+0x4c>
    2e28:	b9 3f       	cpi	r27, 0xF9	; 249
    2e2a:	cc f3       	brlt	.-14     	; 0x2e1e <__fixunssfsi+0x34>
    2e2c:	86 95       	lsr	r24
    2e2e:	77 95       	ror	r23
    2e30:	67 95       	ror	r22
    2e32:	b3 95       	inc	r27
    2e34:	d9 f7       	brne	.-10     	; 0x2e2c <__fixunssfsi+0x42>
    2e36:	3e f4       	brtc	.+14     	; 0x2e46 <__fixunssfsi+0x5c>
    2e38:	90 95       	com	r25
    2e3a:	80 95       	com	r24
    2e3c:	70 95       	com	r23
    2e3e:	61 95       	neg	r22
    2e40:	7f 4f       	sbci	r23, 0xFF	; 255
    2e42:	8f 4f       	sbci	r24, 0xFF	; 255
    2e44:	9f 4f       	sbci	r25, 0xFF	; 255
    2e46:	08 95       	ret

00002e48 <__floatunsisf>:
    2e48:	e8 94       	clt
    2e4a:	09 c0       	rjmp	.+18     	; 0x2e5e <__floatsisf+0x12>

00002e4c <__floatsisf>:
    2e4c:	97 fb       	bst	r25, 7
    2e4e:	3e f4       	brtc	.+14     	; 0x2e5e <__floatsisf+0x12>
    2e50:	90 95       	com	r25
    2e52:	80 95       	com	r24
    2e54:	70 95       	com	r23
    2e56:	61 95       	neg	r22
    2e58:	7f 4f       	sbci	r23, 0xFF	; 255
    2e5a:	8f 4f       	sbci	r24, 0xFF	; 255
    2e5c:	9f 4f       	sbci	r25, 0xFF	; 255
    2e5e:	99 23       	and	r25, r25
    2e60:	a9 f0       	breq	.+42     	; 0x2e8c <__floatsisf+0x40>
    2e62:	f9 2f       	mov	r31, r25
    2e64:	96 e9       	ldi	r25, 0x96	; 150
    2e66:	bb 27       	eor	r27, r27
    2e68:	93 95       	inc	r25
    2e6a:	f6 95       	lsr	r31
    2e6c:	87 95       	ror	r24
    2e6e:	77 95       	ror	r23
    2e70:	67 95       	ror	r22
    2e72:	b7 95       	ror	r27
    2e74:	f1 11       	cpse	r31, r1
    2e76:	f8 cf       	rjmp	.-16     	; 0x2e68 <__floatsisf+0x1c>
    2e78:	fa f4       	brpl	.+62     	; 0x2eb8 <__floatsisf+0x6c>
    2e7a:	bb 0f       	add	r27, r27
    2e7c:	11 f4       	brne	.+4      	; 0x2e82 <__floatsisf+0x36>
    2e7e:	60 ff       	sbrs	r22, 0
    2e80:	1b c0       	rjmp	.+54     	; 0x2eb8 <__floatsisf+0x6c>
    2e82:	6f 5f       	subi	r22, 0xFF	; 255
    2e84:	7f 4f       	sbci	r23, 0xFF	; 255
    2e86:	8f 4f       	sbci	r24, 0xFF	; 255
    2e88:	9f 4f       	sbci	r25, 0xFF	; 255
    2e8a:	16 c0       	rjmp	.+44     	; 0x2eb8 <__floatsisf+0x6c>
    2e8c:	88 23       	and	r24, r24
    2e8e:	11 f0       	breq	.+4      	; 0x2e94 <__floatsisf+0x48>
    2e90:	96 e9       	ldi	r25, 0x96	; 150
    2e92:	11 c0       	rjmp	.+34     	; 0x2eb6 <__floatsisf+0x6a>
    2e94:	77 23       	and	r23, r23
    2e96:	21 f0       	breq	.+8      	; 0x2ea0 <__floatsisf+0x54>
    2e98:	9e e8       	ldi	r25, 0x8E	; 142
    2e9a:	87 2f       	mov	r24, r23
    2e9c:	76 2f       	mov	r23, r22
    2e9e:	05 c0       	rjmp	.+10     	; 0x2eaa <__floatsisf+0x5e>
    2ea0:	66 23       	and	r22, r22
    2ea2:	71 f0       	breq	.+28     	; 0x2ec0 <__floatsisf+0x74>
    2ea4:	96 e8       	ldi	r25, 0x86	; 134
    2ea6:	86 2f       	mov	r24, r22
    2ea8:	70 e0       	ldi	r23, 0x00	; 0
    2eaa:	60 e0       	ldi	r22, 0x00	; 0
    2eac:	2a f0       	brmi	.+10     	; 0x2eb8 <__floatsisf+0x6c>
    2eae:	9a 95       	dec	r25
    2eb0:	66 0f       	add	r22, r22
    2eb2:	77 1f       	adc	r23, r23
    2eb4:	88 1f       	adc	r24, r24
    2eb6:	da f7       	brpl	.-10     	; 0x2eae <__floatsisf+0x62>
    2eb8:	88 0f       	add	r24, r24
    2eba:	96 95       	lsr	r25
    2ebc:	87 95       	ror	r24
    2ebe:	97 f9       	bld	r25, 7
    2ec0:	08 95       	ret

00002ec2 <__fp_inf>:
    2ec2:	97 f9       	bld	r25, 7
    2ec4:	9f 67       	ori	r25, 0x7F	; 127
    2ec6:	80 e8       	ldi	r24, 0x80	; 128
    2ec8:	70 e0       	ldi	r23, 0x00	; 0
    2eca:	60 e0       	ldi	r22, 0x00	; 0
    2ecc:	08 95       	ret

00002ece <__fp_nan>:
    2ece:	9f ef       	ldi	r25, 0xFF	; 255
    2ed0:	80 ec       	ldi	r24, 0xC0	; 192
    2ed2:	08 95       	ret

00002ed4 <__fp_pscA>:
    2ed4:	00 24       	eor	r0, r0
    2ed6:	0a 94       	dec	r0
    2ed8:	16 16       	cp	r1, r22
    2eda:	17 06       	cpc	r1, r23
    2edc:	18 06       	cpc	r1, r24
    2ede:	09 06       	cpc	r0, r25
    2ee0:	08 95       	ret

00002ee2 <__fp_pscB>:
    2ee2:	00 24       	eor	r0, r0
    2ee4:	0a 94       	dec	r0
    2ee6:	12 16       	cp	r1, r18
    2ee8:	13 06       	cpc	r1, r19
    2eea:	14 06       	cpc	r1, r20
    2eec:	05 06       	cpc	r0, r21
    2eee:	08 95       	ret

00002ef0 <__fp_round>:
    2ef0:	09 2e       	mov	r0, r25
    2ef2:	03 94       	inc	r0
    2ef4:	00 0c       	add	r0, r0
    2ef6:	11 f4       	brne	.+4      	; 0x2efc <__fp_round+0xc>
    2ef8:	88 23       	and	r24, r24
    2efa:	52 f0       	brmi	.+20     	; 0x2f10 <__fp_round+0x20>
    2efc:	bb 0f       	add	r27, r27
    2efe:	40 f4       	brcc	.+16     	; 0x2f10 <__fp_round+0x20>
    2f00:	bf 2b       	or	r27, r31
    2f02:	11 f4       	brne	.+4      	; 0x2f08 <__fp_round+0x18>
    2f04:	60 ff       	sbrs	r22, 0
    2f06:	04 c0       	rjmp	.+8      	; 0x2f10 <__fp_round+0x20>
    2f08:	6f 5f       	subi	r22, 0xFF	; 255
    2f0a:	7f 4f       	sbci	r23, 0xFF	; 255
    2f0c:	8f 4f       	sbci	r24, 0xFF	; 255
    2f0e:	9f 4f       	sbci	r25, 0xFF	; 255
    2f10:	08 95       	ret

00002f12 <__fp_split3>:
    2f12:	57 fd       	sbrc	r21, 7
    2f14:	90 58       	subi	r25, 0x80	; 128
    2f16:	44 0f       	add	r20, r20
    2f18:	55 1f       	adc	r21, r21
    2f1a:	59 f0       	breq	.+22     	; 0x2f32 <__fp_splitA+0x10>
    2f1c:	5f 3f       	cpi	r21, 0xFF	; 255
    2f1e:	71 f0       	breq	.+28     	; 0x2f3c <__fp_splitA+0x1a>
    2f20:	47 95       	ror	r20

00002f22 <__fp_splitA>:
    2f22:	88 0f       	add	r24, r24
    2f24:	97 fb       	bst	r25, 7
    2f26:	99 1f       	adc	r25, r25
    2f28:	61 f0       	breq	.+24     	; 0x2f42 <__fp_splitA+0x20>
    2f2a:	9f 3f       	cpi	r25, 0xFF	; 255
    2f2c:	79 f0       	breq	.+30     	; 0x2f4c <__fp_splitA+0x2a>
    2f2e:	87 95       	ror	r24
    2f30:	08 95       	ret
    2f32:	12 16       	cp	r1, r18
    2f34:	13 06       	cpc	r1, r19
    2f36:	14 06       	cpc	r1, r20
    2f38:	55 1f       	adc	r21, r21
    2f3a:	f2 cf       	rjmp	.-28     	; 0x2f20 <__fp_split3+0xe>
    2f3c:	46 95       	lsr	r20
    2f3e:	f1 df       	rcall	.-30     	; 0x2f22 <__fp_splitA>
    2f40:	08 c0       	rjmp	.+16     	; 0x2f52 <__fp_splitA+0x30>
    2f42:	16 16       	cp	r1, r22
    2f44:	17 06       	cpc	r1, r23
    2f46:	18 06       	cpc	r1, r24
    2f48:	99 1f       	adc	r25, r25
    2f4a:	f1 cf       	rjmp	.-30     	; 0x2f2e <__fp_splitA+0xc>
    2f4c:	86 95       	lsr	r24
    2f4e:	71 05       	cpc	r23, r1
    2f50:	61 05       	cpc	r22, r1
    2f52:	08 94       	sec
    2f54:	08 95       	ret

00002f56 <__fp_zero>:
    2f56:	e8 94       	clt

00002f58 <__fp_szero>:
    2f58:	bb 27       	eor	r27, r27
    2f5a:	66 27       	eor	r22, r22
    2f5c:	77 27       	eor	r23, r23
    2f5e:	cb 01       	movw	r24, r22
    2f60:	97 f9       	bld	r25, 7
    2f62:	08 95       	ret

00002f64 <__mulsf3>:
    2f64:	0e 94 c5 17 	call	0x2f8a	; 0x2f8a <__mulsf3x>
    2f68:	0c 94 78 17 	jmp	0x2ef0	; 0x2ef0 <__fp_round>
    2f6c:	0e 94 6a 17 	call	0x2ed4	; 0x2ed4 <__fp_pscA>
    2f70:	38 f0       	brcs	.+14     	; 0x2f80 <__mulsf3+0x1c>
    2f72:	0e 94 71 17 	call	0x2ee2	; 0x2ee2 <__fp_pscB>
    2f76:	20 f0       	brcs	.+8      	; 0x2f80 <__mulsf3+0x1c>
    2f78:	95 23       	and	r25, r21
    2f7a:	11 f0       	breq	.+4      	; 0x2f80 <__mulsf3+0x1c>
    2f7c:	0c 94 61 17 	jmp	0x2ec2	; 0x2ec2 <__fp_inf>
    2f80:	0c 94 67 17 	jmp	0x2ece	; 0x2ece <__fp_nan>
    2f84:	11 24       	eor	r1, r1
    2f86:	0c 94 ac 17 	jmp	0x2f58	; 0x2f58 <__fp_szero>

00002f8a <__mulsf3x>:
    2f8a:	0e 94 89 17 	call	0x2f12	; 0x2f12 <__fp_split3>
    2f8e:	70 f3       	brcs	.-36     	; 0x2f6c <__mulsf3+0x8>

00002f90 <__mulsf3_pse>:
    2f90:	95 9f       	mul	r25, r21
    2f92:	c1 f3       	breq	.-16     	; 0x2f84 <__mulsf3+0x20>
    2f94:	95 0f       	add	r25, r21
    2f96:	50 e0       	ldi	r21, 0x00	; 0
    2f98:	55 1f       	adc	r21, r21
    2f9a:	62 9f       	mul	r22, r18
    2f9c:	f0 01       	movw	r30, r0
    2f9e:	72 9f       	mul	r23, r18
    2fa0:	bb 27       	eor	r27, r27
    2fa2:	f0 0d       	add	r31, r0
    2fa4:	b1 1d       	adc	r27, r1
    2fa6:	63 9f       	mul	r22, r19
    2fa8:	aa 27       	eor	r26, r26
    2faa:	f0 0d       	add	r31, r0
    2fac:	b1 1d       	adc	r27, r1
    2fae:	aa 1f       	adc	r26, r26
    2fb0:	64 9f       	mul	r22, r20
    2fb2:	66 27       	eor	r22, r22
    2fb4:	b0 0d       	add	r27, r0
    2fb6:	a1 1d       	adc	r26, r1
    2fb8:	66 1f       	adc	r22, r22
    2fba:	82 9f       	mul	r24, r18
    2fbc:	22 27       	eor	r18, r18
    2fbe:	b0 0d       	add	r27, r0
    2fc0:	a1 1d       	adc	r26, r1
    2fc2:	62 1f       	adc	r22, r18
    2fc4:	73 9f       	mul	r23, r19
    2fc6:	b0 0d       	add	r27, r0
    2fc8:	a1 1d       	adc	r26, r1
    2fca:	62 1f       	adc	r22, r18
    2fcc:	83 9f       	mul	r24, r19
    2fce:	a0 0d       	add	r26, r0
    2fd0:	61 1d       	adc	r22, r1
    2fd2:	22 1f       	adc	r18, r18
    2fd4:	74 9f       	mul	r23, r20
    2fd6:	33 27       	eor	r19, r19
    2fd8:	a0 0d       	add	r26, r0
    2fda:	61 1d       	adc	r22, r1
    2fdc:	23 1f       	adc	r18, r19
    2fde:	84 9f       	mul	r24, r20
    2fe0:	60 0d       	add	r22, r0
    2fe2:	21 1d       	adc	r18, r1
    2fe4:	82 2f       	mov	r24, r18
    2fe6:	76 2f       	mov	r23, r22
    2fe8:	6a 2f       	mov	r22, r26
    2fea:	11 24       	eor	r1, r1
    2fec:	9f 57       	subi	r25, 0x7F	; 127
    2fee:	50 40       	sbci	r21, 0x00	; 0
    2ff0:	9a f0       	brmi	.+38     	; 0x3018 <__mulsf3_pse+0x88>
    2ff2:	f1 f0       	breq	.+60     	; 0x3030 <__mulsf3_pse+0xa0>
    2ff4:	88 23       	and	r24, r24
    2ff6:	4a f0       	brmi	.+18     	; 0x300a <__mulsf3_pse+0x7a>
    2ff8:	ee 0f       	add	r30, r30
    2ffa:	ff 1f       	adc	r31, r31
    2ffc:	bb 1f       	adc	r27, r27
    2ffe:	66 1f       	adc	r22, r22
    3000:	77 1f       	adc	r23, r23
    3002:	88 1f       	adc	r24, r24
    3004:	91 50       	subi	r25, 0x01	; 1
    3006:	50 40       	sbci	r21, 0x00	; 0
    3008:	a9 f7       	brne	.-22     	; 0x2ff4 <__mulsf3_pse+0x64>
    300a:	9e 3f       	cpi	r25, 0xFE	; 254
    300c:	51 05       	cpc	r21, r1
    300e:	80 f0       	brcs	.+32     	; 0x3030 <__mulsf3_pse+0xa0>
    3010:	0c 94 61 17 	jmp	0x2ec2	; 0x2ec2 <__fp_inf>
    3014:	0c 94 ac 17 	jmp	0x2f58	; 0x2f58 <__fp_szero>
    3018:	5f 3f       	cpi	r21, 0xFF	; 255
    301a:	e4 f3       	brlt	.-8      	; 0x3014 <__mulsf3_pse+0x84>
    301c:	98 3e       	cpi	r25, 0xE8	; 232
    301e:	d4 f3       	brlt	.-12     	; 0x3014 <__mulsf3_pse+0x84>
    3020:	86 95       	lsr	r24
    3022:	77 95       	ror	r23
    3024:	67 95       	ror	r22
    3026:	b7 95       	ror	r27
    3028:	f7 95       	ror	r31
    302a:	e7 95       	ror	r30
    302c:	9f 5f       	subi	r25, 0xFF	; 255
    302e:	c1 f7       	brne	.-16     	; 0x3020 <__mulsf3_pse+0x90>
    3030:	fe 2b       	or	r31, r30
    3032:	88 0f       	add	r24, r24
    3034:	91 1d       	adc	r25, r1
    3036:	96 95       	lsr	r25
    3038:	87 95       	ror	r24
    303a:	97 f9       	bld	r25, 7
    303c:	08 95       	ret

0000303e <__divmodhi4>:
    303e:	97 fb       	bst	r25, 7
    3040:	07 2e       	mov	r0, r23
    3042:	16 f4       	brtc	.+4      	; 0x3048 <__divmodhi4+0xa>
    3044:	00 94       	com	r0
    3046:	07 d0       	rcall	.+14     	; 0x3056 <__divmodhi4_neg1>
    3048:	77 fd       	sbrc	r23, 7
    304a:	09 d0       	rcall	.+18     	; 0x305e <__divmodhi4_neg2>
    304c:	0e 94 58 18 	call	0x30b0	; 0x30b0 <__udivmodhi4>
    3050:	07 fc       	sbrc	r0, 7
    3052:	05 d0       	rcall	.+10     	; 0x305e <__divmodhi4_neg2>
    3054:	3e f4       	brtc	.+14     	; 0x3064 <__divmodhi4_exit>

00003056 <__divmodhi4_neg1>:
    3056:	90 95       	com	r25
    3058:	81 95       	neg	r24
    305a:	9f 4f       	sbci	r25, 0xFF	; 255
    305c:	08 95       	ret

0000305e <__divmodhi4_neg2>:
    305e:	70 95       	com	r23
    3060:	61 95       	neg	r22
    3062:	7f 4f       	sbci	r23, 0xFF	; 255

00003064 <__divmodhi4_exit>:
    3064:	08 95       	ret

00003066 <__divmodsi4>:
    3066:	05 2e       	mov	r0, r21
    3068:	97 fb       	bst	r25, 7
    306a:	1e f4       	brtc	.+6      	; 0x3072 <__divmodsi4+0xc>
    306c:	00 94       	com	r0
    306e:	0e 94 4a 18 	call	0x3094	; 0x3094 <__negsi2>
    3072:	57 fd       	sbrc	r21, 7
    3074:	07 d0       	rcall	.+14     	; 0x3084 <__divmodsi4_neg2>
    3076:	0e 94 6c 18 	call	0x30d8	; 0x30d8 <__udivmodsi4>
    307a:	07 fc       	sbrc	r0, 7
    307c:	03 d0       	rcall	.+6      	; 0x3084 <__divmodsi4_neg2>
    307e:	4e f4       	brtc	.+18     	; 0x3092 <__divmodsi4_exit>
    3080:	0c 94 4a 18 	jmp	0x3094	; 0x3094 <__negsi2>

00003084 <__divmodsi4_neg2>:
    3084:	50 95       	com	r21
    3086:	40 95       	com	r20
    3088:	30 95       	com	r19
    308a:	21 95       	neg	r18
    308c:	3f 4f       	sbci	r19, 0xFF	; 255
    308e:	4f 4f       	sbci	r20, 0xFF	; 255
    3090:	5f 4f       	sbci	r21, 0xFF	; 255

00003092 <__divmodsi4_exit>:
    3092:	08 95       	ret

00003094 <__negsi2>:
    3094:	90 95       	com	r25
    3096:	80 95       	com	r24
    3098:	70 95       	com	r23
    309a:	61 95       	neg	r22
    309c:	7f 4f       	sbci	r23, 0xFF	; 255
    309e:	8f 4f       	sbci	r24, 0xFF	; 255
    30a0:	9f 4f       	sbci	r25, 0xFF	; 255
    30a2:	08 95       	ret

000030a4 <__tablejump2__>:
    30a4:	ee 0f       	add	r30, r30
    30a6:	ff 1f       	adc	r31, r31
    30a8:	05 90       	lpm	r0, Z+
    30aa:	f4 91       	lpm	r31, Z
    30ac:	e0 2d       	mov	r30, r0
    30ae:	09 94       	ijmp

000030b0 <__udivmodhi4>:
    30b0:	aa 1b       	sub	r26, r26
    30b2:	bb 1b       	sub	r27, r27
    30b4:	51 e1       	ldi	r21, 0x11	; 17
    30b6:	07 c0       	rjmp	.+14     	; 0x30c6 <__udivmodhi4_ep>

000030b8 <__udivmodhi4_loop>:
    30b8:	aa 1f       	adc	r26, r26
    30ba:	bb 1f       	adc	r27, r27
    30bc:	a6 17       	cp	r26, r22
    30be:	b7 07       	cpc	r27, r23
    30c0:	10 f0       	brcs	.+4      	; 0x30c6 <__udivmodhi4_ep>
    30c2:	a6 1b       	sub	r26, r22
    30c4:	b7 0b       	sbc	r27, r23

000030c6 <__udivmodhi4_ep>:
    30c6:	88 1f       	adc	r24, r24
    30c8:	99 1f       	adc	r25, r25
    30ca:	5a 95       	dec	r21
    30cc:	a9 f7       	brne	.-22     	; 0x30b8 <__udivmodhi4_loop>
    30ce:	80 95       	com	r24
    30d0:	90 95       	com	r25
    30d2:	bc 01       	movw	r22, r24
    30d4:	cd 01       	movw	r24, r26
    30d6:	08 95       	ret

000030d8 <__udivmodsi4>:
    30d8:	a1 e2       	ldi	r26, 0x21	; 33
    30da:	1a 2e       	mov	r1, r26
    30dc:	aa 1b       	sub	r26, r26
    30de:	bb 1b       	sub	r27, r27
    30e0:	fd 01       	movw	r30, r26
    30e2:	0d c0       	rjmp	.+26     	; 0x30fe <__udivmodsi4_ep>

000030e4 <__udivmodsi4_loop>:
    30e4:	aa 1f       	adc	r26, r26
    30e6:	bb 1f       	adc	r27, r27
    30e8:	ee 1f       	adc	r30, r30
    30ea:	ff 1f       	adc	r31, r31
    30ec:	a2 17       	cp	r26, r18
    30ee:	b3 07       	cpc	r27, r19
    30f0:	e4 07       	cpc	r30, r20
    30f2:	f5 07       	cpc	r31, r21
    30f4:	20 f0       	brcs	.+8      	; 0x30fe <__udivmodsi4_ep>
    30f6:	a2 1b       	sub	r26, r18
    30f8:	b3 0b       	sbc	r27, r19
    30fa:	e4 0b       	sbc	r30, r20
    30fc:	f5 0b       	sbc	r31, r21

000030fe <__udivmodsi4_ep>:
    30fe:	66 1f       	adc	r22, r22
    3100:	77 1f       	adc	r23, r23
    3102:	88 1f       	adc	r24, r24
    3104:	99 1f       	adc	r25, r25
    3106:	1a 94       	dec	r1
    3108:	69 f7       	brne	.-38     	; 0x30e4 <__udivmodsi4_loop>
    310a:	60 95       	com	r22
    310c:	70 95       	com	r23
    310e:	80 95       	com	r24
    3110:	90 95       	com	r25
    3112:	9b 01       	movw	r18, r22
    3114:	ac 01       	movw	r20, r24
    3116:	bd 01       	movw	r22, r26
    3118:	cf 01       	movw	r24, r30
    311a:	08 95       	ret

0000311c <_exit>:
    311c:	f8 94       	cli

0000311e <__stop_program>:
    311e:	ff cf       	rjmp	.-2      	; 0x311e <__stop_program>
